
E45_BMC_FW_LL.elf:     file format elf32-littlearm

Sections:
Idx Name          Size      VMA       LMA       File off  Algn
  0 .isr_vector   000000c0  08000000  08000000  00001000  2**0
                  CONTENTS, ALLOC, LOAD, READONLY, DATA
  1 .text         00002508  080000c0  080000c0  000010c0  2**2
                  CONTENTS, ALLOC, LOAD, READONLY, CODE
  2 .rodata       00000164  080025c8  080025c8  000035c8  2**2
                  CONTENTS, ALLOC, LOAD, READONLY, DATA
  3 .ARM.extab    00000000  0800272c  0800272c  00004f64  2**0
                  CONTENTS, READONLY
  4 .ARM          00000000  0800272c  0800272c  00004f64  2**0
                  CONTENTS, READONLY
  5 .preinit_array 00000000  0800272c  0800272c  00004f64  2**0
                  CONTENTS, ALLOC, LOAD, DATA
  6 .init_array   00000004  0800272c  0800272c  0000372c  2**2
                  CONTENTS, ALLOC, LOAD, READONLY, DATA
  7 .fini_array   00000004  08002730  08002730  00003730  2**2
                  CONTENTS, ALLOC, LOAD, READONLY, DATA
  8 .data         00000018  20000000  08002734  00004000  2**2
                  CONTENTS, ALLOC, LOAD, DATA
  9 .bss          0000079c  20000018  0800274c  00004018  2**2
                  ALLOC
 10 ._user_heap_stack 00000604  200007b4  0800274c  000047b4  2**0
                  ALLOC
 11 .PN           00000010  08003f00  08003f00  00004f00  2**2
                  CONTENTS, ALLOC, LOAD, READONLY, DATA
 12 .SN           00000010  08003f10  08003f10  00004f10  2**2
                  CONTENTS, ALLOC, LOAD, READONLY, DATA
 13 .FW           00000034  08003f20  08003f20  00004f20  2**2
                  CONTENTS, ALLOC, LOAD, READONLY, DATA
 14 .HW           00000010  08003f54  08003f54  00004f54  2**2
                  CONTENTS, ALLOC, LOAD, READONLY, DATA
 15 .ARM.attributes 00000028  00000000  00000000  00004f64  2**0
                  CONTENTS, READONLY
 16 .comment      00000026  00000000  00000000  00004f8c  2**0
                  CONTENTS, READONLY
 17 .debug_info   0000044a  00000000  00000000  00004fb2  2**0
                  CONTENTS, READONLY, DEBUGGING, OCTETS
 18 .debug_abbrev 000002c0  00000000  00000000  000053fc  2**0
                  CONTENTS, READONLY, DEBUGGING, OCTETS
 19 .debug_loclists 000004e7  00000000  00000000  000056bc  2**0
                  CONTENTS, READONLY, DEBUGGING, OCTETS
 20 .debug_aranges 000000c0  00000000  00000000  00005ba8  2**3
                  CONTENTS, READONLY, DEBUGGING, OCTETS
 21 .debug_line   000005a6  00000000  00000000  00005c68  2**0
                  CONTENTS, READONLY, DEBUGGING, OCTETS
 22 .debug_str    0000035c  00000000  00000000  0000620e  2**0
                  CONTENTS, READONLY, DEBUGGING, OCTETS
 23 .debug_frame  000000cc  00000000  00000000  0000656c  2**2
                  CONTENTS, READONLY, DEBUGGING, OCTETS
 24 .debug_line_str 00000097  00000000  00000000  00006638  2**0
                  CONTENTS, READONLY, DEBUGGING, OCTETS

Disassembly of section .text:

080000c0 <deregister_tm_clones>:
 80000c0:	4804      	ldr	r0, [pc, #16]	@ (80000d4 <deregister_tm_clones+0x14>)
 80000c2:	4b05      	ldr	r3, [pc, #20]	@ (80000d8 <deregister_tm_clones+0x18>)
 80000c4:	b510      	push	{r4, lr}
 80000c6:	4283      	cmp	r3, r0
 80000c8:	d003      	beq.n	80000d2 <deregister_tm_clones+0x12>
 80000ca:	4b04      	ldr	r3, [pc, #16]	@ (80000dc <deregister_tm_clones+0x1c>)
 80000cc:	2b00      	cmp	r3, #0
 80000ce:	d000      	beq.n	80000d2 <deregister_tm_clones+0x12>
 80000d0:	4798      	blx	r3
 80000d2:	bd10      	pop	{r4, pc}
 80000d4:	20000018 	.word	0x20000018
 80000d8:	20000018 	.word	0x20000018
 80000dc:	00000000 	.word	0x00000000

080000e0 <register_tm_clones>:
 80000e0:	4806      	ldr	r0, [pc, #24]	@ (80000fc <register_tm_clones+0x1c>)
 80000e2:	4907      	ldr	r1, [pc, #28]	@ (8000100 <register_tm_clones+0x20>)
 80000e4:	1a09      	subs	r1, r1, r0
 80000e6:	108b      	asrs	r3, r1, #2
 80000e8:	0fc9      	lsrs	r1, r1, #31
 80000ea:	18c9      	adds	r1, r1, r3
 80000ec:	b510      	push	{r4, lr}
 80000ee:	1049      	asrs	r1, r1, #1
 80000f0:	d003      	beq.n	80000fa <register_tm_clones+0x1a>
 80000f2:	4b04      	ldr	r3, [pc, #16]	@ (8000104 <register_tm_clones+0x24>)
 80000f4:	2b00      	cmp	r3, #0
 80000f6:	d000      	beq.n	80000fa <register_tm_clones+0x1a>
 80000f8:	4798      	blx	r3
 80000fa:	bd10      	pop	{r4, pc}
 80000fc:	20000018 	.word	0x20000018
 8000100:	20000018 	.word	0x20000018
 8000104:	00000000 	.word	0x00000000

08000108 <__do_global_dtors_aux>:
 8000108:	b510      	push	{r4, lr}
 800010a:	4c07      	ldr	r4, [pc, #28]	@ (8000128 <__do_global_dtors_aux+0x20>)
 800010c:	7823      	ldrb	r3, [r4, #0]
 800010e:	2b00      	cmp	r3, #0
 8000110:	d109      	bne.n	8000126 <__do_global_dtors_aux+0x1e>
 8000112:	f7ff ffd5 	bl	80000c0 <deregister_tm_clones>
 8000116:	4b05      	ldr	r3, [pc, #20]	@ (800012c <__do_global_dtors_aux+0x24>)
 8000118:	2b00      	cmp	r3, #0
 800011a:	d002      	beq.n	8000122 <__do_global_dtors_aux+0x1a>
 800011c:	4804      	ldr	r0, [pc, #16]	@ (8000130 <__do_global_dtors_aux+0x28>)
 800011e:	e000      	b.n	8000122 <__do_global_dtors_aux+0x1a>
 8000120:	bf00      	nop
 8000122:	2301      	movs	r3, #1
 8000124:	7023      	strb	r3, [r4, #0]
 8000126:	bd10      	pop	{r4, pc}
 8000128:	20000018 	.word	0x20000018
 800012c:	00000000 	.word	0x00000000
 8000130:	080025b0 	.word	0x080025b0

08000134 <frame_dummy>:
 8000134:	4b05      	ldr	r3, [pc, #20]	@ (800014c <frame_dummy+0x18>)
 8000136:	b510      	push	{r4, lr}
 8000138:	2b00      	cmp	r3, #0
 800013a:	d003      	beq.n	8000144 <frame_dummy+0x10>
 800013c:	4904      	ldr	r1, [pc, #16]	@ (8000150 <frame_dummy+0x1c>)
 800013e:	4805      	ldr	r0, [pc, #20]	@ (8000154 <frame_dummy+0x20>)
 8000140:	e000      	b.n	8000144 <frame_dummy+0x10>
 8000142:	bf00      	nop
 8000144:	f7ff ffcc 	bl	80000e0 <register_tm_clones>
 8000148:	bd10      	pop	{r4, pc}
 800014a:	46c0      	nop			@ (mov r8, r8)
 800014c:	00000000 	.word	0x00000000
 8000150:	2000001c 	.word	0x2000001c
 8000154:	080025b0 	.word	0x080025b0

08000158 <__libc_init_array>:
 8000158:	b570      	push	{r4, r5, r6, lr}
 800015a:	4b0d      	ldr	r3, [pc, #52]	@ (8000190 <__libc_init_array+0x38>)
 800015c:	4d0d      	ldr	r5, [pc, #52]	@ (8000194 <__libc_init_array+0x3c>)
 800015e:	1b5e      	subs	r6, r3, r5
 8000160:	10b6      	asrs	r6, r6, #2
 8000162:	42ab      	cmp	r3, r5
 8000164:	d005      	beq.n	8000172 <__libc_init_array+0x1a>
 8000166:	2400      	movs	r4, #0
 8000168:	cd08      	ldmia	r5!, {r3}
 800016a:	3401      	adds	r4, #1
 800016c:	4798      	blx	r3
 800016e:	42a6      	cmp	r6, r4
 8000170:	d8fa      	bhi.n	8000168 <__libc_init_array+0x10>
 8000172:	f002 fa1d 	bl	80025b0 <_init>
 8000176:	4b08      	ldr	r3, [pc, #32]	@ (8000198 <__libc_init_array+0x40>)
 8000178:	4d08      	ldr	r5, [pc, #32]	@ (800019c <__libc_init_array+0x44>)
 800017a:	1b5e      	subs	r6, r3, r5
 800017c:	10b6      	asrs	r6, r6, #2
 800017e:	42ab      	cmp	r3, r5
 8000180:	d005      	beq.n	800018e <__libc_init_array+0x36>
 8000182:	2400      	movs	r4, #0
 8000184:	cd08      	ldmia	r5!, {r3}
 8000186:	3401      	adds	r4, #1
 8000188:	4798      	blx	r3
 800018a:	42a6      	cmp	r6, r4
 800018c:	d8fa      	bhi.n	8000184 <__libc_init_array+0x2c>
 800018e:	bd70      	pop	{r4, r5, r6, pc}
 8000190:	0800272c 	.word	0x0800272c
 8000194:	0800272c 	.word	0x0800272c
 8000198:	08002730 	.word	0x08002730
 800019c:	0800272c 	.word	0x0800272c

080001a0 <memset>:
 80001a0:	b5f0      	push	{r4, r5, r6, r7, lr}
 80001a2:	0005      	movs	r5, r0
 80001a4:	0783      	lsls	r3, r0, #30
 80001a6:	d049      	beq.n	800023c <memset+0x9c>
 80001a8:	1e54      	subs	r4, r2, #1
 80001aa:	2a00      	cmp	r2, #0
 80001ac:	d045      	beq.n	800023a <memset+0x9a>
 80001ae:	0003      	movs	r3, r0
 80001b0:	2603      	movs	r6, #3
 80001b2:	b2ca      	uxtb	r2, r1
 80001b4:	e002      	b.n	80001bc <memset+0x1c>
 80001b6:	3501      	adds	r5, #1
 80001b8:	3c01      	subs	r4, #1
 80001ba:	d33e      	bcc.n	800023a <memset+0x9a>
 80001bc:	3301      	adds	r3, #1
 80001be:	702a      	strb	r2, [r5, #0]
 80001c0:	4233      	tst	r3, r6
 80001c2:	d1f8      	bne.n	80001b6 <memset+0x16>
 80001c4:	2c03      	cmp	r4, #3
 80001c6:	d930      	bls.n	800022a <memset+0x8a>
 80001c8:	22ff      	movs	r2, #255	@ 0xff
 80001ca:	400a      	ands	r2, r1
 80001cc:	0215      	lsls	r5, r2, #8
 80001ce:	18ad      	adds	r5, r5, r2
 80001d0:	042a      	lsls	r2, r5, #16
 80001d2:	18ad      	adds	r5, r5, r2
 80001d4:	2c0f      	cmp	r4, #15
 80001d6:	d934      	bls.n	8000242 <memset+0xa2>
 80001d8:	0027      	movs	r7, r4
 80001da:	3f10      	subs	r7, #16
 80001dc:	093f      	lsrs	r7, r7, #4
 80001de:	013e      	lsls	r6, r7, #4
 80001e0:	46b4      	mov	ip, r6
 80001e2:	001e      	movs	r6, r3
 80001e4:	001a      	movs	r2, r3
 80001e6:	3610      	adds	r6, #16
 80001e8:	4466      	add	r6, ip
 80001ea:	6015      	str	r5, [r2, #0]
 80001ec:	6055      	str	r5, [r2, #4]
 80001ee:	6095      	str	r5, [r2, #8]
 80001f0:	60d5      	str	r5, [r2, #12]
 80001f2:	3210      	adds	r2, #16
 80001f4:	4296      	cmp	r6, r2
 80001f6:	d1f8      	bne.n	80001ea <memset+0x4a>
 80001f8:	3701      	adds	r7, #1
 80001fa:	013f      	lsls	r7, r7, #4
 80001fc:	19db      	adds	r3, r3, r7
 80001fe:	270f      	movs	r7, #15
 8000200:	220c      	movs	r2, #12
 8000202:	4027      	ands	r7, r4
 8000204:	4022      	ands	r2, r4
 8000206:	003c      	movs	r4, r7
 8000208:	2a00      	cmp	r2, #0
 800020a:	d00e      	beq.n	800022a <memset+0x8a>
 800020c:	1f3e      	subs	r6, r7, #4
 800020e:	08b6      	lsrs	r6, r6, #2
 8000210:	00b4      	lsls	r4, r6, #2
 8000212:	46a4      	mov	ip, r4
 8000214:	001a      	movs	r2, r3
 8000216:	1d1c      	adds	r4, r3, #4
 8000218:	4464      	add	r4, ip
 800021a:	c220      	stmia	r2!, {r5}
 800021c:	42a2      	cmp	r2, r4
 800021e:	d1fc      	bne.n	800021a <memset+0x7a>
 8000220:	2403      	movs	r4, #3
 8000222:	3601      	adds	r6, #1
 8000224:	00b6      	lsls	r6, r6, #2
 8000226:	199b      	adds	r3, r3, r6
 8000228:	403c      	ands	r4, r7
 800022a:	2c00      	cmp	r4, #0
 800022c:	d005      	beq.n	800023a <memset+0x9a>
 800022e:	b2c9      	uxtb	r1, r1
 8000230:	191c      	adds	r4, r3, r4
 8000232:	7019      	strb	r1, [r3, #0]
 8000234:	3301      	adds	r3, #1
 8000236:	429c      	cmp	r4, r3
 8000238:	d1fb      	bne.n	8000232 <memset+0x92>
 800023a:	bdf0      	pop	{r4, r5, r6, r7, pc}
 800023c:	0003      	movs	r3, r0
 800023e:	0014      	movs	r4, r2
 8000240:	e7c0      	b.n	80001c4 <memset+0x24>
 8000242:	0027      	movs	r7, r4
 8000244:	e7e2      	b.n	800020c <memset+0x6c>
 8000246:	46c0      	nop			@ (mov r8, r8)

08000248 <memcpy>:
 8000248:	b5f0      	push	{r4, r5, r6, r7, lr}
 800024a:	0005      	movs	r5, r0
 800024c:	2a0f      	cmp	r2, #15
 800024e:	d931      	bls.n	80002b4 <memcpy+0x6c>
 8000250:	2703      	movs	r7, #3
 8000252:	003e      	movs	r6, r7
 8000254:	430d      	orrs	r5, r1
 8000256:	000c      	movs	r4, r1
 8000258:	0003      	movs	r3, r0
 800025a:	402e      	ands	r6, r5
 800025c:	422f      	tst	r7, r5
 800025e:	d134      	bne.n	80002ca <memcpy+0x82>
 8000260:	0015      	movs	r5, r2
 8000262:	3d10      	subs	r5, #16
 8000264:	092d      	lsrs	r5, r5, #4
 8000266:	46ac      	mov	ip, r5
 8000268:	012f      	lsls	r7, r5, #4
 800026a:	183f      	adds	r7, r7, r0
 800026c:	6865      	ldr	r5, [r4, #4]
 800026e:	605d      	str	r5, [r3, #4]
 8000270:	68a5      	ldr	r5, [r4, #8]
 8000272:	609d      	str	r5, [r3, #8]
 8000274:	68e5      	ldr	r5, [r4, #12]
 8000276:	60dd      	str	r5, [r3, #12]
 8000278:	6825      	ldr	r5, [r4, #0]
 800027a:	3410      	adds	r4, #16
 800027c:	601d      	str	r5, [r3, #0]
 800027e:	001d      	movs	r5, r3
 8000280:	3310      	adds	r3, #16
 8000282:	42bd      	cmp	r5, r7
 8000284:	d1f2      	bne.n	800026c <memcpy+0x24>
 8000286:	4665      	mov	r5, ip
 8000288:	230f      	movs	r3, #15
 800028a:	240c      	movs	r4, #12
 800028c:	3501      	adds	r5, #1
 800028e:	012d      	lsls	r5, r5, #4
 8000290:	1949      	adds	r1, r1, r5
 8000292:	4013      	ands	r3, r2
 8000294:	1945      	adds	r5, r0, r5
 8000296:	4214      	tst	r4, r2
 8000298:	d01a      	beq.n	80002d0 <memcpy+0x88>
 800029a:	3b04      	subs	r3, #4
 800029c:	089b      	lsrs	r3, r3, #2
 800029e:	3301      	adds	r3, #1
 80002a0:	009b      	lsls	r3, r3, #2
 80002a2:	598c      	ldr	r4, [r1, r6]
 80002a4:	51ac      	str	r4, [r5, r6]
 80002a6:	3604      	adds	r6, #4
 80002a8:	429e      	cmp	r6, r3
 80002aa:	d1fa      	bne.n	80002a2 <memcpy+0x5a>
 80002ac:	2303      	movs	r3, #3
 80002ae:	19ad      	adds	r5, r5, r6
 80002b0:	1989      	adds	r1, r1, r6
 80002b2:	401a      	ands	r2, r3
 80002b4:	1e56      	subs	r6, r2, #1
 80002b6:	2a00      	cmp	r2, #0
 80002b8:	d006      	beq.n	80002c8 <memcpy+0x80>
 80002ba:	2300      	movs	r3, #0
 80002bc:	5ccc      	ldrb	r4, [r1, r3]
 80002be:	001a      	movs	r2, r3
 80002c0:	54ec      	strb	r4, [r5, r3]
 80002c2:	3301      	adds	r3, #1
 80002c4:	4296      	cmp	r6, r2
 80002c6:	d1f9      	bne.n	80002bc <memcpy+0x74>
 80002c8:	bdf0      	pop	{r4, r5, r6, r7, pc}
 80002ca:	0005      	movs	r5, r0
 80002cc:	1e56      	subs	r6, r2, #1
 80002ce:	e7f4      	b.n	80002ba <memcpy+0x72>
 80002d0:	001a      	movs	r2, r3
 80002d2:	e7ef      	b.n	80002b4 <memcpy+0x6c>

080002d4 <__udivsi3>:
 80002d4:	2200      	movs	r2, #0
 80002d6:	0843      	lsrs	r3, r0, #1
 80002d8:	428b      	cmp	r3, r1
 80002da:	d374      	bcc.n	80003c6 <__udivsi3+0xf2>
 80002dc:	0903      	lsrs	r3, r0, #4
 80002de:	428b      	cmp	r3, r1
 80002e0:	d35f      	bcc.n	80003a2 <__udivsi3+0xce>
 80002e2:	0a03      	lsrs	r3, r0, #8
 80002e4:	428b      	cmp	r3, r1
 80002e6:	d344      	bcc.n	8000372 <__udivsi3+0x9e>
 80002e8:	0b03      	lsrs	r3, r0, #12
 80002ea:	428b      	cmp	r3, r1
 80002ec:	d328      	bcc.n	8000340 <__udivsi3+0x6c>
 80002ee:	0c03      	lsrs	r3, r0, #16
 80002f0:	428b      	cmp	r3, r1
 80002f2:	d30d      	bcc.n	8000310 <__udivsi3+0x3c>
 80002f4:	22ff      	movs	r2, #255	@ 0xff
 80002f6:	0209      	lsls	r1, r1, #8
 80002f8:	ba12      	rev	r2, r2
 80002fa:	0c03      	lsrs	r3, r0, #16
 80002fc:	428b      	cmp	r3, r1
 80002fe:	d302      	bcc.n	8000306 <__udivsi3+0x32>
 8000300:	1212      	asrs	r2, r2, #8
 8000302:	0209      	lsls	r1, r1, #8
 8000304:	d065      	beq.n	80003d2 <__udivsi3+0xfe>
 8000306:	0b03      	lsrs	r3, r0, #12
 8000308:	428b      	cmp	r3, r1
 800030a:	d319      	bcc.n	8000340 <__udivsi3+0x6c>
 800030c:	e000      	b.n	8000310 <__udivsi3+0x3c>
 800030e:	0a09      	lsrs	r1, r1, #8
 8000310:	0bc3      	lsrs	r3, r0, #15
 8000312:	428b      	cmp	r3, r1
 8000314:	d301      	bcc.n	800031a <__udivsi3+0x46>
 8000316:	03cb      	lsls	r3, r1, #15
 8000318:	1ac0      	subs	r0, r0, r3
 800031a:	4152      	adcs	r2, r2
 800031c:	0b83      	lsrs	r3, r0, #14
 800031e:	428b      	cmp	r3, r1
 8000320:	d301      	bcc.n	8000326 <__udivsi3+0x52>
 8000322:	038b      	lsls	r3, r1, #14
 8000324:	1ac0      	subs	r0, r0, r3
 8000326:	4152      	adcs	r2, r2
 8000328:	0b43      	lsrs	r3, r0, #13
 800032a:	428b      	cmp	r3, r1
 800032c:	d301      	bcc.n	8000332 <__udivsi3+0x5e>
 800032e:	034b      	lsls	r3, r1, #13
 8000330:	1ac0      	subs	r0, r0, r3
 8000332:	4152      	adcs	r2, r2
 8000334:	0b03      	lsrs	r3, r0, #12
 8000336:	428b      	cmp	r3, r1
 8000338:	d301      	bcc.n	800033e <__udivsi3+0x6a>
 800033a:	030b      	lsls	r3, r1, #12
 800033c:	1ac0      	subs	r0, r0, r3
 800033e:	4152      	adcs	r2, r2
 8000340:	0ac3      	lsrs	r3, r0, #11
 8000342:	428b      	cmp	r3, r1
 8000344:	d301      	bcc.n	800034a <__udivsi3+0x76>
 8000346:	02cb      	lsls	r3, r1, #11
 8000348:	1ac0      	subs	r0, r0, r3
 800034a:	4152      	adcs	r2, r2
 800034c:	0a83      	lsrs	r3, r0, #10
 800034e:	428b      	cmp	r3, r1
 8000350:	d301      	bcc.n	8000356 <__udivsi3+0x82>
 8000352:	028b      	lsls	r3, r1, #10
 8000354:	1ac0      	subs	r0, r0, r3
 8000356:	4152      	adcs	r2, r2
 8000358:	0a43      	lsrs	r3, r0, #9
 800035a:	428b      	cmp	r3, r1
 800035c:	d301      	bcc.n	8000362 <__udivsi3+0x8e>
 800035e:	024b      	lsls	r3, r1, #9
 8000360:	1ac0      	subs	r0, r0, r3
 8000362:	4152      	adcs	r2, r2
 8000364:	0a03      	lsrs	r3, r0, #8
 8000366:	428b      	cmp	r3, r1
 8000368:	d301      	bcc.n	800036e <__udivsi3+0x9a>
 800036a:	020b      	lsls	r3, r1, #8
 800036c:	1ac0      	subs	r0, r0, r3
 800036e:	4152      	adcs	r2, r2
 8000370:	d2cd      	bcs.n	800030e <__udivsi3+0x3a>
 8000372:	09c3      	lsrs	r3, r0, #7
 8000374:	428b      	cmp	r3, r1
 8000376:	d301      	bcc.n	800037c <__udivsi3+0xa8>
 8000378:	01cb      	lsls	r3, r1, #7
 800037a:	1ac0      	subs	r0, r0, r3
 800037c:	4152      	adcs	r2, r2
 800037e:	0983      	lsrs	r3, r0, #6
 8000380:	428b      	cmp	r3, r1
 8000382:	d301      	bcc.n	8000388 <__udivsi3+0xb4>
 8000384:	018b      	lsls	r3, r1, #6
 8000386:	1ac0      	subs	r0, r0, r3
 8000388:	4152      	adcs	r2, r2
 800038a:	0943      	lsrs	r3, r0, #5
 800038c:	428b      	cmp	r3, r1
 800038e:	d301      	bcc.n	8000394 <__udivsi3+0xc0>
 8000390:	014b      	lsls	r3, r1, #5
 8000392:	1ac0      	subs	r0, r0, r3
 8000394:	4152      	adcs	r2, r2
 8000396:	0903      	lsrs	r3, r0, #4
 8000398:	428b      	cmp	r3, r1
 800039a:	d301      	bcc.n	80003a0 <__udivsi3+0xcc>
 800039c:	010b      	lsls	r3, r1, #4
 800039e:	1ac0      	subs	r0, r0, r3
 80003a0:	4152      	adcs	r2, r2
 80003a2:	08c3      	lsrs	r3, r0, #3
 80003a4:	428b      	cmp	r3, r1
 80003a6:	d301      	bcc.n	80003ac <__udivsi3+0xd8>
 80003a8:	00cb      	lsls	r3, r1, #3
 80003aa:	1ac0      	subs	r0, r0, r3
 80003ac:	4152      	adcs	r2, r2
 80003ae:	0883      	lsrs	r3, r0, #2
 80003b0:	428b      	cmp	r3, r1
 80003b2:	d301      	bcc.n	80003b8 <__udivsi3+0xe4>
 80003b4:	008b      	lsls	r3, r1, #2
 80003b6:	1ac0      	subs	r0, r0, r3
 80003b8:	4152      	adcs	r2, r2
 80003ba:	0843      	lsrs	r3, r0, #1
 80003bc:	428b      	cmp	r3, r1
 80003be:	d301      	bcc.n	80003c4 <__udivsi3+0xf0>
 80003c0:	004b      	lsls	r3, r1, #1
 80003c2:	1ac0      	subs	r0, r0, r3
 80003c4:	4152      	adcs	r2, r2
 80003c6:	1a41      	subs	r1, r0, r1
 80003c8:	d200      	bcs.n	80003cc <__udivsi3+0xf8>
 80003ca:	4601      	mov	r1, r0
 80003cc:	4152      	adcs	r2, r2
 80003ce:	4610      	mov	r0, r2
 80003d0:	4770      	bx	lr
 80003d2:	e7ff      	b.n	80003d4 <__udivsi3+0x100>
 80003d4:	b501      	push	{r0, lr}
 80003d6:	2000      	movs	r0, #0
 80003d8:	f000 f8f0 	bl	80005bc <__aeabi_idiv0>
 80003dc:	bd02      	pop	{r1, pc}
 80003de:	46c0      	nop			@ (mov r8, r8)

080003e0 <__aeabi_uidivmod>:
 80003e0:	2900      	cmp	r1, #0
 80003e2:	d0f7      	beq.n	80003d4 <__udivsi3+0x100>
 80003e4:	e776      	b.n	80002d4 <__udivsi3>
 80003e6:	4770      	bx	lr

080003e8 <__divsi3>:
 80003e8:	4603      	mov	r3, r0
 80003ea:	430b      	orrs	r3, r1
 80003ec:	d47f      	bmi.n	80004ee <__divsi3+0x106>
 80003ee:	2200      	movs	r2, #0
 80003f0:	0843      	lsrs	r3, r0, #1
 80003f2:	428b      	cmp	r3, r1
 80003f4:	d374      	bcc.n	80004e0 <__divsi3+0xf8>
 80003f6:	0903      	lsrs	r3, r0, #4
 80003f8:	428b      	cmp	r3, r1
 80003fa:	d35f      	bcc.n	80004bc <__divsi3+0xd4>
 80003fc:	0a03      	lsrs	r3, r0, #8
 80003fe:	428b      	cmp	r3, r1
 8000400:	d344      	bcc.n	800048c <__divsi3+0xa4>
 8000402:	0b03      	lsrs	r3, r0, #12
 8000404:	428b      	cmp	r3, r1
 8000406:	d328      	bcc.n	800045a <__divsi3+0x72>
 8000408:	0c03      	lsrs	r3, r0, #16
 800040a:	428b      	cmp	r3, r1
 800040c:	d30d      	bcc.n	800042a <__divsi3+0x42>
 800040e:	22ff      	movs	r2, #255	@ 0xff
 8000410:	0209      	lsls	r1, r1, #8
 8000412:	ba12      	rev	r2, r2
 8000414:	0c03      	lsrs	r3, r0, #16
 8000416:	428b      	cmp	r3, r1
 8000418:	d302      	bcc.n	8000420 <__divsi3+0x38>
 800041a:	1212      	asrs	r2, r2, #8
 800041c:	0209      	lsls	r1, r1, #8
 800041e:	d065      	beq.n	80004ec <__divsi3+0x104>
 8000420:	0b03      	lsrs	r3, r0, #12
 8000422:	428b      	cmp	r3, r1
 8000424:	d319      	bcc.n	800045a <__divsi3+0x72>
 8000426:	e000      	b.n	800042a <__divsi3+0x42>
 8000428:	0a09      	lsrs	r1, r1, #8
 800042a:	0bc3      	lsrs	r3, r0, #15
 800042c:	428b      	cmp	r3, r1
 800042e:	d301      	bcc.n	8000434 <__divsi3+0x4c>
 8000430:	03cb      	lsls	r3, r1, #15
 8000432:	1ac0      	subs	r0, r0, r3
 8000434:	4152      	adcs	r2, r2
 8000436:	0b83      	lsrs	r3, r0, #14
 8000438:	428b      	cmp	r3, r1
 800043a:	d301      	bcc.n	8000440 <__divsi3+0x58>
 800043c:	038b      	lsls	r3, r1, #14
 800043e:	1ac0      	subs	r0, r0, r3
 8000440:	4152      	adcs	r2, r2
 8000442:	0b43      	lsrs	r3, r0, #13
 8000444:	428b      	cmp	r3, r1
 8000446:	d301      	bcc.n	800044c <__divsi3+0x64>
 8000448:	034b      	lsls	r3, r1, #13
 800044a:	1ac0      	subs	r0, r0, r3
 800044c:	4152      	adcs	r2, r2
 800044e:	0b03      	lsrs	r3, r0, #12
 8000450:	428b      	cmp	r3, r1
 8000452:	d301      	bcc.n	8000458 <__divsi3+0x70>
 8000454:	030b      	lsls	r3, r1, #12
 8000456:	1ac0      	subs	r0, r0, r3
 8000458:	4152      	adcs	r2, r2
 800045a:	0ac3      	lsrs	r3, r0, #11
 800045c:	428b      	cmp	r3, r1
 800045e:	d301      	bcc.n	8000464 <__divsi3+0x7c>
 8000460:	02cb      	lsls	r3, r1, #11
 8000462:	1ac0      	subs	r0, r0, r3
 8000464:	4152      	adcs	r2, r2
 8000466:	0a83      	lsrs	r3, r0, #10
 8000468:	428b      	cmp	r3, r1
 800046a:	d301      	bcc.n	8000470 <__divsi3+0x88>
 800046c:	028b      	lsls	r3, r1, #10
 800046e:	1ac0      	subs	r0, r0, r3
 8000470:	4152      	adcs	r2, r2
 8000472:	0a43      	lsrs	r3, r0, #9
 8000474:	428b      	cmp	r3, r1
 8000476:	d301      	bcc.n	800047c <__divsi3+0x94>
 8000478:	024b      	lsls	r3, r1, #9
 800047a:	1ac0      	subs	r0, r0, r3
 800047c:	4152      	adcs	r2, r2
 800047e:	0a03      	lsrs	r3, r0, #8
 8000480:	428b      	cmp	r3, r1
 8000482:	d301      	bcc.n	8000488 <__divsi3+0xa0>
 8000484:	020b      	lsls	r3, r1, #8
 8000486:	1ac0      	subs	r0, r0, r3
 8000488:	4152      	adcs	r2, r2
 800048a:	d2cd      	bcs.n	8000428 <__divsi3+0x40>
 800048c:	09c3      	lsrs	r3, r0, #7
 800048e:	428b      	cmp	r3, r1
 8000490:	d301      	bcc.n	8000496 <__divsi3+0xae>
 8000492:	01cb      	lsls	r3, r1, #7
 8000494:	1ac0      	subs	r0, r0, r3
 8000496:	4152      	adcs	r2, r2
 8000498:	0983      	lsrs	r3, r0, #6
 800049a:	428b      	cmp	r3, r1
 800049c:	d301      	bcc.n	80004a2 <__divsi3+0xba>
 800049e:	018b      	lsls	r3, r1, #6
 80004a0:	1ac0      	subs	r0, r0, r3
 80004a2:	4152      	adcs	r2, r2
 80004a4:	0943      	lsrs	r3, r0, #5
 80004a6:	428b      	cmp	r3, r1
 80004a8:	d301      	bcc.n	80004ae <__divsi3+0xc6>
 80004aa:	014b      	lsls	r3, r1, #5
 80004ac:	1ac0      	subs	r0, r0, r3
 80004ae:	4152      	adcs	r2, r2
 80004b0:	0903      	lsrs	r3, r0, #4
 80004b2:	428b      	cmp	r3, r1
 80004b4:	d301      	bcc.n	80004ba <__divsi3+0xd2>
 80004b6:	010b      	lsls	r3, r1, #4
 80004b8:	1ac0      	subs	r0, r0, r3
 80004ba:	4152      	adcs	r2, r2
 80004bc:	08c3      	lsrs	r3, r0, #3
 80004be:	428b      	cmp	r3, r1
 80004c0:	d301      	bcc.n	80004c6 <__divsi3+0xde>
 80004c2:	00cb      	lsls	r3, r1, #3
 80004c4:	1ac0      	subs	r0, r0, r3
 80004c6:	4152      	adcs	r2, r2
 80004c8:	0883      	lsrs	r3, r0, #2
 80004ca:	428b      	cmp	r3, r1
 80004cc:	d301      	bcc.n	80004d2 <__divsi3+0xea>
 80004ce:	008b      	lsls	r3, r1, #2
 80004d0:	1ac0      	subs	r0, r0, r3
 80004d2:	4152      	adcs	r2, r2
 80004d4:	0843      	lsrs	r3, r0, #1
 80004d6:	428b      	cmp	r3, r1
 80004d8:	d301      	bcc.n	80004de <__divsi3+0xf6>
 80004da:	004b      	lsls	r3, r1, #1
 80004dc:	1ac0      	subs	r0, r0, r3
 80004de:	4152      	adcs	r2, r2
 80004e0:	1a41      	subs	r1, r0, r1
 80004e2:	d200      	bcs.n	80004e6 <__divsi3+0xfe>
 80004e4:	4601      	mov	r1, r0
 80004e6:	4152      	adcs	r2, r2
 80004e8:	4610      	mov	r0, r2
 80004ea:	4770      	bx	lr
 80004ec:	e05d      	b.n	80005aa <__divsi3+0x1c2>
 80004ee:	0fca      	lsrs	r2, r1, #31
 80004f0:	d000      	beq.n	80004f4 <__divsi3+0x10c>
 80004f2:	4249      	negs	r1, r1
 80004f4:	1003      	asrs	r3, r0, #32
 80004f6:	d300      	bcc.n	80004fa <__divsi3+0x112>
 80004f8:	4240      	negs	r0, r0
 80004fa:	4053      	eors	r3, r2
 80004fc:	2200      	movs	r2, #0
 80004fe:	469c      	mov	ip, r3
 8000500:	0903      	lsrs	r3, r0, #4
 8000502:	428b      	cmp	r3, r1
 8000504:	d32d      	bcc.n	8000562 <__divsi3+0x17a>
 8000506:	0a03      	lsrs	r3, r0, #8
 8000508:	428b      	cmp	r3, r1
 800050a:	d312      	bcc.n	8000532 <__divsi3+0x14a>
 800050c:	22fc      	movs	r2, #252	@ 0xfc
 800050e:	0189      	lsls	r1, r1, #6
 8000510:	ba12      	rev	r2, r2
 8000512:	0a03      	lsrs	r3, r0, #8
 8000514:	428b      	cmp	r3, r1
 8000516:	d30c      	bcc.n	8000532 <__divsi3+0x14a>
 8000518:	0189      	lsls	r1, r1, #6
 800051a:	1192      	asrs	r2, r2, #6
 800051c:	428b      	cmp	r3, r1
 800051e:	d308      	bcc.n	8000532 <__divsi3+0x14a>
 8000520:	0189      	lsls	r1, r1, #6
 8000522:	1192      	asrs	r2, r2, #6
 8000524:	428b      	cmp	r3, r1
 8000526:	d304      	bcc.n	8000532 <__divsi3+0x14a>
 8000528:	0189      	lsls	r1, r1, #6
 800052a:	d03a      	beq.n	80005a2 <__divsi3+0x1ba>
 800052c:	1192      	asrs	r2, r2, #6
 800052e:	e000      	b.n	8000532 <__divsi3+0x14a>
 8000530:	0989      	lsrs	r1, r1, #6
 8000532:	09c3      	lsrs	r3, r0, #7
 8000534:	428b      	cmp	r3, r1
 8000536:	d301      	bcc.n	800053c <__divsi3+0x154>
 8000538:	01cb      	lsls	r3, r1, #7
 800053a:	1ac0      	subs	r0, r0, r3
 800053c:	4152      	adcs	r2, r2
 800053e:	0983      	lsrs	r3, r0, #6
 8000540:	428b      	cmp	r3, r1
 8000542:	d301      	bcc.n	8000548 <__divsi3+0x160>
 8000544:	018b      	lsls	r3, r1, #6
 8000546:	1ac0      	subs	r0, r0, r3
 8000548:	4152      	adcs	r2, r2
 800054a:	0943      	lsrs	r3, r0, #5
 800054c:	428b      	cmp	r3, r1
 800054e:	d301      	bcc.n	8000554 <__divsi3+0x16c>
 8000550:	014b      	lsls	r3, r1, #5
 8000552:	1ac0      	subs	r0, r0, r3
 8000554:	4152      	adcs	r2, r2
 8000556:	0903      	lsrs	r3, r0, #4
 8000558:	428b      	cmp	r3, r1
 800055a:	d301      	bcc.n	8000560 <__divsi3+0x178>
 800055c:	010b      	lsls	r3, r1, #4
 800055e:	1ac0      	subs	r0, r0, r3
 8000560:	4152      	adcs	r2, r2
 8000562:	08c3      	lsrs	r3, r0, #3
 8000564:	428b      	cmp	r3, r1
 8000566:	d301      	bcc.n	800056c <__divsi3+0x184>
 8000568:	00cb      	lsls	r3, r1, #3
 800056a:	1ac0      	subs	r0, r0, r3
 800056c:	4152      	adcs	r2, r2
 800056e:	0883      	lsrs	r3, r0, #2
 8000570:	428b      	cmp	r3, r1
 8000572:	d301      	bcc.n	8000578 <__divsi3+0x190>
 8000574:	008b      	lsls	r3, r1, #2
 8000576:	1ac0      	subs	r0, r0, r3
 8000578:	4152      	adcs	r2, r2
 800057a:	d2d9      	bcs.n	8000530 <__divsi3+0x148>
 800057c:	0843      	lsrs	r3, r0, #1
 800057e:	428b      	cmp	r3, r1
 8000580:	d301      	bcc.n	8000586 <__divsi3+0x19e>
 8000582:	004b      	lsls	r3, r1, #1
 8000584:	1ac0      	subs	r0, r0, r3
 8000586:	4152      	adcs	r2, r2
 8000588:	1a41      	subs	r1, r0, r1
 800058a:	d200      	bcs.n	800058e <__divsi3+0x1a6>
 800058c:	4601      	mov	r1, r0
 800058e:	4663      	mov	r3, ip
 8000590:	4152      	adcs	r2, r2
 8000592:	105b      	asrs	r3, r3, #1
 8000594:	4610      	mov	r0, r2
 8000596:	d301      	bcc.n	800059c <__divsi3+0x1b4>
 8000598:	4240      	negs	r0, r0
 800059a:	2b00      	cmp	r3, #0
 800059c:	d500      	bpl.n	80005a0 <__divsi3+0x1b8>
 800059e:	4249      	negs	r1, r1
 80005a0:	4770      	bx	lr
 80005a2:	4663      	mov	r3, ip
 80005a4:	105b      	asrs	r3, r3, #1
 80005a6:	d300      	bcc.n	80005aa <__divsi3+0x1c2>
 80005a8:	4240      	negs	r0, r0
 80005aa:	b501      	push	{r0, lr}
 80005ac:	2000      	movs	r0, #0
 80005ae:	f000 f805 	bl	80005bc <__aeabi_idiv0>
 80005b2:	bd02      	pop	{r1, pc}

080005b4 <__aeabi_idivmod>:
 80005b4:	2900      	cmp	r1, #0
 80005b6:	d0f8      	beq.n	80005aa <__divsi3+0x1c2>
 80005b8:	e716      	b.n	80003e8 <__divsi3>
 80005ba:	4770      	bx	lr

080005bc <__aeabi_idiv0>:
 80005bc:	4770      	bx	lr
 80005be:	46c0      	nop			@ (mov r8, r8)

080005c0 <comms_init>:
 80005c0:	2000      	movs	r0, #0
 80005c2:	2184      	movs	r1, #132	@ 0x84
 80005c4:	2200      	movs	r2, #0
 80005c6:	4b03      	ldr	r3, [pc, #12]	@ (80005d4 <comms_init+0x14>)
 80005c8:	5458      	strb	r0, [r3, r1]
 80005ca:	3902      	subs	r1, #2
 80005cc:	801a      	strh	r2, [r3, #0]
 80005ce:	525a      	strh	r2, [r3, r1]
 80005d0:	4770      	bx	lr
 80005d2:	46c0      	nop			@ (mov r8, r8)
 80005d4:	20000034 	.word	0x20000034

080005d8 <comms_transmitHandler>:
 80005d8:	b570      	push	{r4, r5, r6, lr}
 80005da:	b082      	sub	sp, #8
 80005dc:	466b      	mov	r3, sp
 80005de:	2480      	movs	r4, #128	@ 0x80
 80005e0:	4d16      	ldr	r5, [pc, #88]	@ (800063c <comms_transmitHandler+0x64>)
 80005e2:	1dde      	adds	r6, r3, #7
 80005e4:	e00c      	b.n	8000600 <comms_transmitHandler+0x28>
 80005e6:	2201      	movs	r2, #1
 80005e8:	0031      	movs	r1, r6
 80005ea:	0028      	movs	r0, r5
 80005ec:	3c01      	subs	r4, #1
 80005ee:	f000 f9df 	bl	80009b0 <rb_readBuf>
 80005f2:	b2e4      	uxtb	r4, r4
 80005f4:	7831      	ldrb	r1, [r6, #0]
 80005f6:	4812      	ldr	r0, [pc, #72]	@ (8000640 <comms_transmitHandler+0x68>)
 80005f8:	f001 fd84 	bl	8002104 <SEA_UART_sendByte>
 80005fc:	2c00      	cmp	r4, #0
 80005fe:	d004      	beq.n	800060a <comms_transmitHandler+0x32>
 8000600:	0028      	movs	r0, r5
 8000602:	f000 f9ff 	bl	8000a04 <rb_checkUnhandledData>
 8000606:	2800      	cmp	r0, #0
 8000608:	d1ed      	bne.n	80005e6 <comms_transmitHandler+0xe>
 800060a:	466b      	mov	r3, sp
 800060c:	2480      	movs	r4, #128	@ 0x80
 800060e:	4d0d      	ldr	r5, [pc, #52]	@ (8000644 <comms_transmitHandler+0x6c>)
 8000610:	1dde      	adds	r6, r3, #7
 8000612:	e00c      	b.n	800062e <comms_transmitHandler+0x56>
 8000614:	2201      	movs	r2, #1
 8000616:	0031      	movs	r1, r6
 8000618:	0028      	movs	r0, r5
 800061a:	3c01      	subs	r4, #1
 800061c:	f000 f9c8 	bl	80009b0 <rb_readBuf>
 8000620:	b2e4      	uxtb	r4, r4
 8000622:	7831      	ldrb	r1, [r6, #0]
 8000624:	4808      	ldr	r0, [pc, #32]	@ (8000648 <comms_transmitHandler+0x70>)
 8000626:	f001 fd6d 	bl	8002104 <SEA_UART_sendByte>
 800062a:	2c00      	cmp	r4, #0
 800062c:	d004      	beq.n	8000638 <comms_transmitHandler+0x60>
 800062e:	0028      	movs	r0, r5
 8000630:	f000 f9e8 	bl	8000a04 <rb_checkUnhandledData>
 8000634:	2800      	cmp	r0, #0
 8000636:	d1ed      	bne.n	8000614 <comms_transmitHandler+0x3c>
 8000638:	b002      	add	sp, #8
 800063a:	bd70      	pop	{r4, r5, r6, pc}
 800063c:	2000056c 	.word	0x2000056c
 8000640:	40013800 	.word	0x40013800
 8000644:	2000034c 	.word	0x2000034c
 8000648:	40004400 	.word	0x40004400

0800064c <comms_extractPacket>:
 800064c:	7803      	ldrb	r3, [r0, #0]
 800064e:	b570      	push	{r4, r5, r6, lr}
 8000650:	2b01      	cmp	r3, #1
 8000652:	d013      	beq.n	800067c <comms_extractPacket+0x30>
 8000654:	2b02      	cmp	r3, #2
 8000656:	d007      	beq.n	8000668 <comms_extractPacket+0x1c>
 8000658:	2b00      	cmp	r3, #0
 800065a:	d102      	bne.n	8000662 <comms_extractPacket+0x16>
 800065c:	780b      	ldrb	r3, [r1, #0]
 800065e:	2bfc      	cmp	r3, #252	@ 0xfc
 8000660:	d036      	beq.n	80006d0 <comms_extractPacket+0x84>
 8000662:	7843      	ldrb	r3, [r0, #1]
 8000664:	7003      	strb	r3, [r0, #0]
 8000666:	bd70      	pop	{r4, r5, r6, pc}
 8000668:	780a      	ldrb	r2, [r1, #0]
 800066a:	2afc      	cmp	r2, #252	@ 0xfc
 800066c:	d030      	beq.n	80006d0 <comms_extractPacket+0x84>
 800066e:	2182      	movs	r1, #130	@ 0x82
 8000670:	5c43      	ldrb	r3, [r0, r1]
 8000672:	18c4      	adds	r4, r0, r3
 8000674:	3301      	adds	r3, #1
 8000676:	70a2      	strb	r2, [r4, #2]
 8000678:	5443      	strb	r3, [r0, r1]
 800067a:	e7f2      	b.n	8000662 <comms_extractPacket+0x16>
 800067c:	780b      	ldrb	r3, [r1, #0]
 800067e:	2bfc      	cmp	r3, #252	@ 0xfc
 8000680:	d029      	beq.n	80006d6 <comms_extractPacket+0x8a>
 8000682:	2bfd      	cmp	r3, #253	@ 0xfd
 8000684:	d030      	beq.n	80006e8 <comms_extractPacket+0x9c>
 8000686:	2bfe      	cmp	r3, #254	@ 0xfe
 8000688:	d1eb      	bne.n	8000662 <comms_extractPacket+0x16>
 800068a:	3b7c      	subs	r3, #124	@ 0x7c
 800068c:	5cc4      	ldrb	r4, [r0, r3]
 800068e:	1902      	adds	r2, r0, r4
 8000690:	7851      	ldrb	r1, [r2, #1]
 8000692:	2283      	movs	r2, #131	@ 0x83
 8000694:	3c01      	subs	r4, #1
 8000696:	b2e4      	uxtb	r4, r4
 8000698:	5481      	strb	r1, [r0, r2]
 800069a:	54c4      	strb	r4, [r0, r3]
 800069c:	2c00      	cmp	r4, #0
 800069e:	d02b      	beq.n	80006f8 <comms_extractPacket+0xac>
 80006a0:	2300      	movs	r3, #0
 80006a2:	2200      	movs	r2, #0
 80006a4:	1c85      	adds	r5, r0, #2
 80006a6:	5ce9      	ldrb	r1, [r5, r3]
 80006a8:	3301      	adds	r3, #1
 80006aa:	1852      	adds	r2, r2, r1
 80006ac:	b2d9      	uxtb	r1, r3
 80006ae:	b2d2      	uxtb	r2, r2
 80006b0:	428c      	cmp	r4, r1
 80006b2:	d8f8      	bhi.n	80006a6 <comms_extractPacket+0x5a>
 80006b4:	2100      	movs	r1, #0
 80006b6:	2300      	movs	r3, #0
 80006b8:	5c6e      	ldrb	r6, [r5, r1]
 80006ba:	3101      	adds	r1, #1
 80006bc:	199b      	adds	r3, r3, r6
 80006be:	b2ce      	uxtb	r6, r1
 80006c0:	b2db      	uxtb	r3, r3
 80006c2:	42b4      	cmp	r4, r6
 80006c4:	d8f8      	bhi.n	80006b8 <comms_extractPacket+0x6c>
 80006c6:	429a      	cmp	r2, r3
 80006c8:	d016      	beq.n	80006f8 <comms_extractPacket+0xac>
 80006ca:	2300      	movs	r3, #0
 80006cc:	7043      	strb	r3, [r0, #1]
 80006ce:	e7c9      	b.n	8000664 <comms_extractPacket+0x18>
 80006d0:	2301      	movs	r3, #1
 80006d2:	7043      	strb	r3, [r0, #1]
 80006d4:	e7c6      	b.n	8000664 <comms_extractPacket+0x18>
 80006d6:	2182      	movs	r1, #130	@ 0x82
 80006d8:	5c42      	ldrb	r2, [r0, r1]
 80006da:	1884      	adds	r4, r0, r2
 80006dc:	3201      	adds	r2, #1
 80006de:	70a3      	strb	r3, [r4, #2]
 80006e0:	5442      	strb	r2, [r0, r1]
 80006e2:	2302      	movs	r3, #2
 80006e4:	7043      	strb	r3, [r0, #1]
 80006e6:	e7bd      	b.n	8000664 <comms_extractPacket+0x18>
 80006e8:	2300      	movs	r3, #0
 80006ea:	2284      	movs	r2, #132	@ 0x84
 80006ec:	5483      	strb	r3, [r0, r2]
 80006ee:	3a02      	subs	r2, #2
 80006f0:	5483      	strb	r3, [r0, r2]
 80006f2:	3201      	adds	r2, #1
 80006f4:	5483      	strb	r3, [r0, r2]
 80006f6:	e7f4      	b.n	80006e2 <comms_extractPacket+0x96>
 80006f8:	2384      	movs	r3, #132	@ 0x84
 80006fa:	2201      	movs	r2, #1
 80006fc:	54c2      	strb	r2, [r0, r3]
 80006fe:	e7e4      	b.n	80006ca <comms_extractPacket+0x7e>

08000700 <comms_receiveHandler>:
 8000700:	b5f0      	push	{r4, r5, r6, r7, lr}
 8000702:	2420      	movs	r4, #32
 8000704:	2784      	movs	r7, #132	@ 0x84
 8000706:	4d18      	ldr	r5, [pc, #96]	@ (8000768 <comms_receiveHandler+0x68>)
 8000708:	4e18      	ldr	r6, [pc, #96]	@ (800076c <comms_receiveHandler+0x6c>)
 800070a:	b083      	sub	sp, #12
 800070c:	e011      	b.n	8000732 <comms_receiveHandler+0x32>
 800070e:	466b      	mov	r3, sp
 8000710:	2201      	movs	r2, #1
 8000712:	1dd9      	adds	r1, r3, #7
 8000714:	0028      	movs	r0, r5
 8000716:	f000 f94b 	bl	80009b0 <rb_readBuf>
 800071a:	466b      	mov	r3, sp
 800071c:	0030      	movs	r0, r6
 800071e:	1dd9      	adds	r1, r3, #7
 8000720:	f7ff ff94 	bl	800064c <comms_extractPacket>
 8000724:	5df3      	ldrb	r3, [r6, r7]
 8000726:	2b00      	cmp	r3, #0
 8000728:	d108      	bne.n	800073c <comms_receiveHandler+0x3c>
 800072a:	3c01      	subs	r4, #1
 800072c:	b2e4      	uxtb	r4, r4
 800072e:	2c00      	cmp	r4, #0
 8000730:	d004      	beq.n	800073c <comms_receiveHandler+0x3c>
 8000732:	0028      	movs	r0, r5
 8000734:	f000 f966 	bl	8000a04 <rb_checkUnhandledData>
 8000738:	2800      	cmp	r0, #0
 800073a:	d1e8      	bne.n	800070e <comms_receiveHandler+0xe>
 800073c:	4c0c      	ldr	r4, [pc, #48]	@ (8000770 <comms_receiveHandler+0x70>)
 800073e:	0020      	movs	r0, r4
 8000740:	f000 f960 	bl	8000a04 <rb_checkUnhandledData>
 8000744:	2800      	cmp	r0, #0
 8000746:	d101      	bne.n	800074c <comms_receiveHandler+0x4c>
 8000748:	b003      	add	sp, #12
 800074a:	bdf0      	pop	{r4, r5, r6, r7, pc}
 800074c:	466b      	mov	r3, sp
 800074e:	2201      	movs	r2, #1
 8000750:	1dd9      	adds	r1, r3, #7
 8000752:	0020      	movs	r0, r4
 8000754:	f000 f92c 	bl	80009b0 <rb_readBuf>
 8000758:	466b      	mov	r3, sp
 800075a:	2201      	movs	r2, #1
 800075c:	4805      	ldr	r0, [pc, #20]	@ (8000774 <comms_receiveHandler+0x74>)
 800075e:	1dd9      	adds	r1, r3, #7
 8000760:	f000 f906 	bl	8000970 <rb_writeBuf>
 8000764:	e7f0      	b.n	8000748 <comms_receiveHandler+0x48>
 8000766:	46c0      	nop			@ (mov r8, r8)
 8000768:	2000067c 	.word	0x2000067c
 800076c:	20000034 	.word	0x20000034
 8000770:	2000045c 	.word	0x2000045c
 8000774:	2000056c 	.word	0x2000056c

08000778 <comms_stuffPacket>:
 8000778:	b5f0      	push	{r4, r5, r6, r7, lr}
 800077a:	4647      	mov	r7, r8
 800077c:	46ce      	mov	lr, r9
 800077e:	b580      	push	{r7, lr}
 8000780:	b083      	sub	sp, #12
 8000782:	466b      	mov	r3, sp
 8000784:	1d5f      	adds	r7, r3, #5
 8000786:	23fc      	movs	r3, #252	@ 0xfc
 8000788:	703b      	strb	r3, [r7, #0]
 800078a:	466b      	mov	r3, sp
 800078c:	1d9c      	adds	r4, r3, #6
 800078e:	23fd      	movs	r3, #253	@ 0xfd
 8000790:	7023      	strb	r3, [r4, #0]
 8000792:	3bf6      	subs	r3, #246	@ 0xf6
 8000794:	446b      	add	r3, sp
 8000796:	4698      	mov	r8, r3
 8000798:	000e      	movs	r6, r1
 800079a:	23fe      	movs	r3, #254	@ 0xfe
 800079c:	4642      	mov	r2, r8
 800079e:	0005      	movs	r5, r0
 80007a0:	7013      	strb	r3, [r2, #0]
 80007a2:	0039      	movs	r1, r7
 80007a4:	2201      	movs	r2, #1
 80007a6:	0030      	movs	r0, r6
 80007a8:	f000 f8e2 	bl	8000970 <rb_writeBuf>
 80007ac:	2201      	movs	r2, #1
 80007ae:	0021      	movs	r1, r4
 80007b0:	0030      	movs	r0, r6
 80007b2:	f000 f8dd 	bl	8000970 <rb_writeBuf>
 80007b6:	2380      	movs	r3, #128	@ 0x80
 80007b8:	5ceb      	ldrb	r3, [r5, r3]
 80007ba:	2b00      	cmp	r3, #0
 80007bc:	d017      	beq.n	80007ee <comms_stuffPacket+0x76>
 80007be:	2380      	movs	r3, #128	@ 0x80
 80007c0:	2400      	movs	r4, #0
 80007c2:	4699      	mov	r9, r3
 80007c4:	e00a      	b.n	80007dc <comms_stuffPacket+0x64>
 80007c6:	2201      	movs	r2, #1
 80007c8:	1929      	adds	r1, r5, r4
 80007ca:	0030      	movs	r0, r6
 80007cc:	f000 f8d0 	bl	8000970 <rb_writeBuf>
 80007d0:	464b      	mov	r3, r9
 80007d2:	3401      	adds	r4, #1
 80007d4:	5cea      	ldrb	r2, [r5, r3]
 80007d6:	b2e3      	uxtb	r3, r4
 80007d8:	429a      	cmp	r2, r3
 80007da:	d908      	bls.n	80007ee <comms_stuffPacket+0x76>
 80007dc:	782b      	ldrb	r3, [r5, #0]
 80007de:	2bfc      	cmp	r3, #252	@ 0xfc
 80007e0:	d1f1      	bne.n	80007c6 <comms_stuffPacket+0x4e>
 80007e2:	2201      	movs	r2, #1
 80007e4:	0039      	movs	r1, r7
 80007e6:	0030      	movs	r0, r6
 80007e8:	f000 f8c2 	bl	8000970 <rb_writeBuf>
 80007ec:	e7eb      	b.n	80007c6 <comms_stuffPacket+0x4e>
 80007ee:	2381      	movs	r3, #129	@ 0x81
 80007f0:	5ceb      	ldrb	r3, [r5, r3]
 80007f2:	2bfc      	cmp	r3, #252	@ 0xfc
 80007f4:	d014      	beq.n	8000820 <comms_stuffPacket+0xa8>
 80007f6:	0029      	movs	r1, r5
 80007f8:	0030      	movs	r0, r6
 80007fa:	2201      	movs	r2, #1
 80007fc:	3181      	adds	r1, #129	@ 0x81
 80007fe:	f000 f8b7 	bl	8000970 <rb_writeBuf>
 8000802:	0039      	movs	r1, r7
 8000804:	0030      	movs	r0, r6
 8000806:	2201      	movs	r2, #1
 8000808:	f000 f8b2 	bl	8000970 <rb_writeBuf>
 800080c:	2201      	movs	r2, #1
 800080e:	4641      	mov	r1, r8
 8000810:	0030      	movs	r0, r6
 8000812:	f000 f8ad 	bl	8000970 <rb_writeBuf>
 8000816:	b003      	add	sp, #12
 8000818:	bcc0      	pop	{r6, r7}
 800081a:	46b9      	mov	r9, r7
 800081c:	46b0      	mov	r8, r6
 800081e:	bdf0      	pop	{r4, r5, r6, r7, pc}
 8000820:	2201      	movs	r2, #1
 8000822:	0039      	movs	r1, r7
 8000824:	0030      	movs	r0, r6
 8000826:	f000 f8a3 	bl	8000970 <rb_writeBuf>
 800082a:	e7e4      	b.n	80007f6 <comms_stuffPacket+0x7e>

0800082c <comms_packetParser>:
 800082c:	b570      	push	{r4, r5, r6, lr}
 800082e:	b0a2      	sub	sp, #136	@ 0x88
 8000830:	0004      	movs	r4, r0
 8000832:	2283      	movs	r2, #131	@ 0x83
 8000834:	493c      	ldr	r1, [pc, #240]	@ (8000928 <comms_packetParser+0xfc>)
 8000836:	a801      	add	r0, sp, #4
 8000838:	f7ff fd06 	bl	8000248 <memcpy>
 800083c:	2382      	movs	r3, #130	@ 0x82
 800083e:	5ce2      	ldrb	r2, [r4, r3]
 8000840:	2a00      	cmp	r2, #0
 8000842:	d010      	beq.n	8000866 <comms_packetParser+0x3a>
 8000844:	7822      	ldrb	r2, [r4, #0]
 8000846:	2a02      	cmp	r2, #2
 8000848:	d041      	beq.n	80008ce <comms_packetParser+0xa2>
 800084a:	d911      	bls.n	8000870 <comms_packetParser+0x44>
 800084c:	2a03      	cmp	r2, #3
 800084e:	d061      	beq.n	8000914 <comms_packetParser+0xe8>
 8000850:	2a71      	cmp	r2, #113	@ 0x71
 8000852:	d108      	bne.n	8000866 <comms_packetParser+0x3a>
 8000854:	2380      	movs	r3, #128	@ 0x80
 8000856:	5ce2      	ldrb	r2, [r4, r3]
 8000858:	4834      	ldr	r0, [pc, #208]	@ (800092c <comms_packetParser+0x100>)
 800085a:	3a01      	subs	r2, #1
 800085c:	b2d2      	uxtb	r2, r2
 800085e:	1c61      	adds	r1, r4, #1
 8000860:	f000 f886 	bl	8000970 <rb_writeBuf>
 8000864:	46c0      	nop			@ (mov r8, r8)
 8000866:	2382      	movs	r3, #130	@ 0x82
 8000868:	2200      	movs	r2, #0
 800086a:	54e2      	strb	r2, [r4, r3]
 800086c:	b022      	add	sp, #136	@ 0x88
 800086e:	bd70      	pop	{r4, r5, r6, pc}
 8000870:	2a01      	cmp	r2, #1
 8000872:	d1f8      	bne.n	8000866 <comms_packetParser+0x3a>
 8000874:	466b      	mov	r3, sp
 8000876:	78a2      	ldrb	r2, [r4, #2]
 8000878:	1dd8      	adds	r0, r3, #7
 800087a:	7861      	ldrb	r1, [r4, #1]
 800087c:	f000 f8e2 	bl	8000a44 <reg_read>
 8000880:	466a      	mov	r2, sp
 8000882:	2381      	movs	r3, #129	@ 0x81
 8000884:	7113      	strb	r3, [r2, #4]
 8000886:	7863      	ldrb	r3, [r4, #1]
 8000888:	3204      	adds	r2, #4
 800088a:	7053      	strb	r3, [r2, #1]
 800088c:	2380      	movs	r3, #128	@ 0x80
 800088e:	78a5      	ldrb	r5, [r4, #2]
 8000890:	7095      	strb	r5, [r2, #2]
 8000892:	3503      	adds	r5, #3
 8000894:	b2ed      	uxtb	r5, r5
 8000896:	54d5      	strb	r5, [r2, r3]
 8000898:	2d00      	cmp	r5, #0
 800089a:	d039      	beq.n	8000910 <comms_packetParser+0xe4>
 800089c:	0011      	movs	r1, r2
 800089e:	2300      	movs	r3, #0
 80008a0:	2200      	movs	r2, #0
 80008a2:	7808      	ldrb	r0, [r1, #0]
 80008a4:	3301      	adds	r3, #1
 80008a6:	1812      	adds	r2, r2, r0
 80008a8:	b2db      	uxtb	r3, r3
 80008aa:	b2d2      	uxtb	r2, r2
 80008ac:	3101      	adds	r1, #1
 80008ae:	429d      	cmp	r5, r3
 80008b0:	d1f7      	bne.n	80008a2 <comms_packetParser+0x76>
 80008b2:	4669      	mov	r1, sp
 80008b4:	2381      	movs	r3, #129	@ 0x81
 80008b6:	3104      	adds	r1, #4
 80008b8:	54ca      	strb	r2, [r1, r3]
 80008ba:	4669      	mov	r1, sp
 80008bc:	2201      	movs	r2, #1
 80008be:	3301      	adds	r3, #1
 80008c0:	3104      	adds	r1, #4
 80008c2:	54ca      	strb	r2, [r1, r3]
 80008c4:	a801      	add	r0, sp, #4
 80008c6:	491a      	ldr	r1, [pc, #104]	@ (8000930 <comms_packetParser+0x104>)
 80008c8:	f7ff ff56 	bl	8000778 <comms_stuffPacket>
 80008cc:	e7cb      	b.n	8000866 <comms_packetParser+0x3a>
 80008ce:	466a      	mov	r2, sp
 80008d0:	4669      	mov	r1, sp
 80008d2:	2580      	movs	r5, #128	@ 0x80
 80008d4:	4668      	mov	r0, sp
 80008d6:	7113      	strb	r3, [r2, #4]
 80008d8:	7862      	ldrb	r2, [r4, #1]
 80008da:	466e      	mov	r6, sp
 80008dc:	714a      	strb	r2, [r1, #5]
 80008de:	5d61      	ldrb	r1, [r4, r5]
 80008e0:	3a7e      	subs	r2, #126	@ 0x7e
 80008e2:	3902      	subs	r1, #2
 80008e4:	b2c9      	uxtb	r1, r1
 80008e6:	7181      	strb	r1, [r0, #6]
 80008e8:	1852      	adds	r2, r2, r1
 80008ea:	2181      	movs	r1, #129	@ 0x81
 80008ec:	3604      	adds	r6, #4
 80008ee:	2003      	movs	r0, #3
 80008f0:	5472      	strb	r2, [r6, r1]
 80008f2:	2201      	movs	r2, #1
 80008f4:	5570      	strb	r0, [r6, r5]
 80008f6:	490e      	ldr	r1, [pc, #56]	@ (8000930 <comms_packetParser+0x104>)
 80008f8:	0030      	movs	r0, r6
 80008fa:	54f2      	strb	r2, [r6, r3]
 80008fc:	f7ff ff3c 	bl	8000778 <comms_stuffPacket>
 8000900:	5d62      	ldrb	r2, [r4, r5]
 8000902:	7860      	ldrb	r0, [r4, #1]
 8000904:	3a02      	subs	r2, #2
 8000906:	b2d2      	uxtb	r2, r2
 8000908:	1ca1      	adds	r1, r4, #2
 800090a:	f000 f8bb 	bl	8000a84 <reg_write>
 800090e:	e7aa      	b.n	8000866 <comms_packetParser+0x3a>
 8000910:	2200      	movs	r2, #0
 8000912:	e7ce      	b.n	80008b2 <comms_packetParser+0x86>
 8000914:	f3bf 8f4f 	dsb	sy
 8000918:	4b06      	ldr	r3, [pc, #24]	@ (8000934 <comms_packetParser+0x108>)
 800091a:	4a07      	ldr	r2, [pc, #28]	@ (8000938 <comms_packetParser+0x10c>)
 800091c:	60da      	str	r2, [r3, #12]
 800091e:	f3bf 8f4f 	dsb	sy
 8000922:	46c0      	nop			@ (mov r8, r8)
 8000924:	e7fd      	b.n	8000922 <comms_packetParser+0xf6>
 8000926:	46c0      	nop			@ (mov r8, r8)
 8000928:	080025c8 	.word	0x080025c8
 800092c:	2000034c 	.word	0x2000034c
 8000930:	2000056c 	.word	0x2000056c
 8000934:	e000ed00 	.word	0xe000ed00
 8000938:	05fa0004 	.word	0x05fa0004

0800093c <comms_handler>:
 800093c:	b510      	push	{r4, lr}
 800093e:	f7ff fedf 	bl	8000700 <comms_receiveHandler>
 8000942:	4803      	ldr	r0, [pc, #12]	@ (8000950 <comms_handler+0x14>)
 8000944:	f7ff ff72 	bl	800082c <comms_packetParser>
 8000948:	f7ff fe46 	bl	80005d8 <comms_transmitHandler>
 800094c:	bd10      	pop	{r4, pc}
 800094e:	46c0      	nop			@ (mov r8, r8)
 8000950:	20000036 	.word	0x20000036

08000954 <rb_init>:
 8000954:	0003      	movs	r3, r0
 8000956:	2284      	movs	r2, #132	@ 0x84
 8000958:	3308      	adds	r3, #8
 800095a:	0052      	lsls	r2, r2, #1
 800095c:	6003      	str	r3, [r0, #0]
 800095e:	6043      	str	r3, [r0, #4]
 8000960:	5083      	str	r3, [r0, r2]
 8000962:	2386      	movs	r3, #134	@ 0x86
 8000964:	1dc2      	adds	r2, r0, #7
 8000966:	32ff      	adds	r2, #255	@ 0xff
 8000968:	005b      	lsls	r3, r3, #1
 800096a:	50c2      	str	r2, [r0, r3]
 800096c:	4770      	bx	lr
 800096e:	46c0      	nop			@ (mov r8, r8)

08000970 <rb_writeBuf>:
 8000970:	b5f0      	push	{r4, r5, r6, r7, lr}
 8000972:	2a00      	cmp	r2, #0
 8000974:	d01b      	beq.n	80009ae <rb_writeBuf+0x3e>
 8000976:	2484      	movs	r4, #132	@ 0x84
 8000978:	2786      	movs	r7, #134	@ 0x86
 800097a:	0064      	lsls	r4, r4, #1
 800097c:	2300      	movs	r3, #0
 800097e:	46a4      	mov	ip, r4
 8000980:	007f      	lsls	r7, r7, #1
 8000982:	e006      	b.n	8000992 <rb_writeBuf+0x22>
 8000984:	6044      	str	r4, [r0, #4]
 8000986:	5ccd      	ldrb	r5, [r1, r3]
 8000988:	3301      	adds	r3, #1
 800098a:	7025      	strb	r5, [r4, #0]
 800098c:	b29c      	uxth	r4, r3
 800098e:	42a2      	cmp	r2, r4
 8000990:	d90d      	bls.n	80009ae <rb_writeBuf+0x3e>
 8000992:	6845      	ldr	r5, [r0, #4]
 8000994:	59c6      	ldr	r6, [r0, r7]
 8000996:	1c6c      	adds	r4, r5, #1
 8000998:	42b5      	cmp	r5, r6
 800099a:	d1f3      	bne.n	8000984 <rb_writeBuf+0x14>
 800099c:	4664      	mov	r4, ip
 800099e:	5904      	ldr	r4, [r0, r4]
 80009a0:	6044      	str	r4, [r0, #4]
 80009a2:	5ccd      	ldrb	r5, [r1, r3]
 80009a4:	3301      	adds	r3, #1
 80009a6:	7025      	strb	r5, [r4, #0]
 80009a8:	b29c      	uxth	r4, r3
 80009aa:	42a2      	cmp	r2, r4
 80009ac:	d8f1      	bhi.n	8000992 <rb_writeBuf+0x22>
 80009ae:	bdf0      	pop	{r4, r5, r6, r7, pc}

080009b0 <rb_readBuf>:
 80009b0:	0003      	movs	r3, r0
 80009b2:	b5f0      	push	{r4, r5, r6, r7, lr}
 80009b4:	6804      	ldr	r4, [r0, #0]
 80009b6:	6840      	ldr	r0, [r0, #4]
 80009b8:	4284      	cmp	r4, r0
 80009ba:	d01f      	beq.n	80009fc <rb_readBuf+0x4c>
 80009bc:	2a00      	cmp	r2, #0
 80009be:	d01f      	beq.n	8000a00 <rb_readBuf+0x50>
 80009c0:	2084      	movs	r0, #132	@ 0x84
 80009c2:	2786      	movs	r7, #134	@ 0x86
 80009c4:	0040      	lsls	r0, r0, #1
 80009c6:	2500      	movs	r5, #0
 80009c8:	4684      	mov	ip, r0
 80009ca:	007f      	lsls	r7, r7, #1
 80009cc:	e00c      	b.n	80009e8 <rb_readBuf+0x38>
 80009ce:	6018      	str	r0, [r3, #0]
 80009d0:	7800      	ldrb	r0, [r0, #0]
 80009d2:	7008      	strb	r0, [r1, #0]
 80009d4:	681c      	ldr	r4, [r3, #0]
 80009d6:	685e      	ldr	r6, [r3, #4]
 80009d8:	1c68      	adds	r0, r5, #1
 80009da:	b2c0      	uxtb	r0, r0
 80009dc:	42b4      	cmp	r4, r6
 80009de:	d00c      	beq.n	80009fa <rb_readBuf+0x4a>
 80009e0:	3101      	adds	r1, #1
 80009e2:	4290      	cmp	r0, r2
 80009e4:	d007      	beq.n	80009f6 <rb_readBuf+0x46>
 80009e6:	0005      	movs	r5, r0
 80009e8:	59de      	ldr	r6, [r3, r7]
 80009ea:	1c60      	adds	r0, r4, #1
 80009ec:	42a6      	cmp	r6, r4
 80009ee:	d1ee      	bne.n	80009ce <rb_readBuf+0x1e>
 80009f0:	4660      	mov	r0, ip
 80009f2:	5818      	ldr	r0, [r3, r0]
 80009f4:	e7eb      	b.n	80009ce <rb_readBuf+0x1e>
 80009f6:	3502      	adds	r5, #2
 80009f8:	b2e8      	uxtb	r0, r5
 80009fa:	bdf0      	pop	{r4, r5, r6, r7, pc}
 80009fc:	2000      	movs	r0, #0
 80009fe:	e7fc      	b.n	80009fa <rb_readBuf+0x4a>
 8000a00:	2001      	movs	r0, #1
 8000a02:	e7fa      	b.n	80009fa <rb_readBuf+0x4a>

08000a04 <rb_checkUnhandledData>:
 8000a04:	6803      	ldr	r3, [r0, #0]
 8000a06:	6840      	ldr	r0, [r0, #4]
 8000a08:	1a18      	subs	r0, r3, r0
 8000a0a:	1e43      	subs	r3, r0, #1
 8000a0c:	4198      	sbcs	r0, r3
 8000a0e:	b2c0      	uxtb	r0, r0
 8000a10:	4770      	bx	lr
 8000a12:	46c0      	nop			@ (mov r8, r8)

08000a14 <reg_init>:
 8000a14:	4b06      	ldr	r3, [pc, #24]	@ (8000a30 <reg_init+0x1c>)
 8000a16:	4a07      	ldr	r2, [pc, #28]	@ (8000a34 <reg_init+0x20>)
 8000a18:	601a      	str	r2, [r3, #0]
 8000a1a:	4a07      	ldr	r2, [pc, #28]	@ (8000a38 <reg_init+0x24>)
 8000a1c:	605a      	str	r2, [r3, #4]
 8000a1e:	4a07      	ldr	r2, [pc, #28]	@ (8000a3c <reg_init+0x28>)
 8000a20:	609a      	str	r2, [r3, #8]
 8000a22:	4a07      	ldr	r2, [pc, #28]	@ (8000a40 <reg_init+0x2c>)
 8000a24:	60da      	str	r2, [r3, #12]
 8000a26:	2280      	movs	r2, #128	@ 0x80
 8000a28:	741a      	strb	r2, [r3, #16]
 8000a2a:	327f      	adds	r2, #127	@ 0x7f
 8000a2c:	751a      	strb	r2, [r3, #20]
 8000a2e:	4770      	bx	lr
 8000a30:	200000bc 	.word	0x200000bc
 8000a34:	08003f00 	.word	0x08003f00
 8000a38:	08003f10 	.word	0x08003f10
 8000a3c:	08003f20 	.word	0x08003f20
 8000a40:	08003f54 	.word	0x08003f54

08000a44 <reg_read>:
 8000a44:	1853      	adds	r3, r2, r1
 8000a46:	b510      	push	{r4, lr}
 8000a48:	2b8e      	cmp	r3, #142	@ 0x8e
 8000a4a:	dd03      	ble.n	8000a54 <reg_read+0x10>
 8000a4c:	2272      	movs	r2, #114	@ 0x72
 8000a4e:	4252      	negs	r2, r2
 8000a50:	1a52      	subs	r2, r2, r1
 8000a52:	b2d2      	uxtb	r2, r2
 8000a54:	2903      	cmp	r1, #3
 8000a56:	d90d      	bls.n	8000a74 <reg_read+0x30>
 8000a58:	2a00      	cmp	r2, #0
 8000a5a:	d00a      	beq.n	8000a72 <reg_read+0x2e>
 8000a5c:	4b08      	ldr	r3, [pc, #32]	@ (8000a80 <reg_read+0x3c>)
 8000a5e:	0089      	lsls	r1, r1, #2
 8000a60:	18cb      	adds	r3, r1, r3
 8000a62:	2100      	movs	r1, #0
 8000a64:	781c      	ldrb	r4, [r3, #0]
 8000a66:	3304      	adds	r3, #4
 8000a68:	5444      	strb	r4, [r0, r1]
 8000a6a:	3101      	adds	r1, #1
 8000a6c:	b2cc      	uxtb	r4, r1
 8000a6e:	42a2      	cmp	r2, r4
 8000a70:	d8f8      	bhi.n	8000a64 <reg_read+0x20>
 8000a72:	bd10      	pop	{r4, pc}
 8000a74:	4b02      	ldr	r3, [pc, #8]	@ (8000a80 <reg_read+0x3c>)
 8000a76:	0089      	lsls	r1, r1, #2
 8000a78:	58c9      	ldr	r1, [r1, r3]
 8000a7a:	f7ff fbe5 	bl	8000248 <memcpy>
 8000a7e:	e7f8      	b.n	8000a72 <reg_read+0x2e>
 8000a80:	200000bc 	.word	0x200000bc

08000a84 <reg_write>:
 8000a84:	b510      	push	{r4, lr}
 8000a86:	0004      	movs	r4, r0
 8000a88:	18a3      	adds	r3, r4, r2
 8000a8a:	0010      	movs	r0, r2
 8000a8c:	2b8e      	cmp	r3, #142	@ 0x8e
 8000a8e:	dd03      	ble.n	8000a98 <reg_write+0x14>
 8000a90:	2072      	movs	r0, #114	@ 0x72
 8000a92:	4240      	negs	r0, r0
 8000a94:	1b00      	subs	r0, r0, r4
 8000a96:	b2c0      	uxtb	r0, r0
 8000a98:	2800      	cmp	r0, #0
 8000a9a:	d00a      	beq.n	8000ab2 <reg_write+0x2e>
 8000a9c:	4b05      	ldr	r3, [pc, #20]	@ (8000ab4 <reg_write+0x30>)
 8000a9e:	00a4      	lsls	r4, r4, #2
 8000aa0:	18e4      	adds	r4, r4, r3
 8000aa2:	2300      	movs	r3, #0
 8000aa4:	5cca      	ldrb	r2, [r1, r3]
 8000aa6:	3301      	adds	r3, #1
 8000aa8:	7022      	strb	r2, [r4, #0]
 8000aaa:	b2da      	uxtb	r2, r3
 8000aac:	3404      	adds	r4, #4
 8000aae:	4290      	cmp	r0, r2
 8000ab0:	d8f8      	bhi.n	8000aa4 <reg_write+0x20>
 8000ab2:	bd10      	pop	{r4, pc}
 8000ab4:	200000bc 	.word	0x200000bc

08000ab8 <reg_OpMetrics_handler>:
 8000ab8:	b570      	push	{r4, r5, r6, lr}
 8000aba:	b082      	sub	sp, #8
 8000abc:	4668      	mov	r0, sp
 8000abe:	2108      	movs	r1, #8
 8000ac0:	f001 fcc0 	bl	8002444 <SDK_ADC_GetConversionResults>
 8000ac4:	466b      	mov	r3, sp
 8000ac6:	4d23      	ldr	r5, [pc, #140]	@ (8000b54 <reg_OpMetrics_handler+0x9c>)
 8000ac8:	4e23      	ldr	r6, [pc, #140]	@ (8000b58 <reg_OpMetrics_handler+0xa0>)
 8000aca:	0029      	movs	r1, r5
 8000acc:	0032      	movs	r2, r6
 8000ace:	8858      	ldrh	r0, [r3, #2]
 8000ad0:	f001 fd04 	bl	80024dc <SDK_ADC_calculateVin>
 8000ad4:	2382      	movs	r3, #130	@ 0x82
 8000ad6:	4c21      	ldr	r4, [pc, #132]	@ (8000b5c <reg_OpMetrics_handler+0xa4>)
 8000ad8:	005b      	lsls	r3, r3, #1
 8000ada:	54e0      	strb	r0, [r4, r3]
 8000adc:	0a00      	lsrs	r0, r0, #8
 8000ade:	3b04      	subs	r3, #4
 8000ae0:	54e0      	strb	r0, [r4, r3]
 8000ae2:	466b      	mov	r3, sp
 8000ae4:	0032      	movs	r2, r6
 8000ae6:	0029      	movs	r1, r5
 8000ae8:	8898      	ldrh	r0, [r3, #4]
 8000aea:	f001 fcf7 	bl	80024dc <SDK_ADC_calculateVin>
 8000aee:	2386      	movs	r3, #134	@ 0x86
 8000af0:	005b      	lsls	r3, r3, #1
 8000af2:	54e0      	strb	r0, [r4, r3]
 8000af4:	0a00      	lsrs	r0, r0, #8
 8000af6:	3b04      	subs	r3, #4
 8000af8:	54e0      	strb	r0, [r4, r3]
 8000afa:	466b      	mov	r3, sp
 8000afc:	4a18      	ldr	r2, [pc, #96]	@ (8000b60 <reg_OpMetrics_handler+0xa8>)
 8000afe:	0029      	movs	r1, r5
 8000b00:	8818      	ldrh	r0, [r3, #0]
 8000b02:	f001 fceb 	bl	80024dc <SDK_ADC_calculateVin>
 8000b06:	238a      	movs	r3, #138	@ 0x8a
 8000b08:	005b      	lsls	r3, r3, #1
 8000b0a:	54e0      	strb	r0, [r4, r3]
 8000b0c:	0a00      	lsrs	r0, r0, #8
 8000b0e:	3b04      	subs	r3, #4
 8000b10:	54e0      	strb	r0, [r4, r3]
 8000b12:	466b      	mov	r3, sp
 8000b14:	4813      	ldr	r0, [pc, #76]	@ (8000b64 <reg_OpMetrics_handler+0xac>)
 8000b16:	88db      	ldrh	r3, [r3, #6]
 8000b18:	4913      	ldr	r1, [pc, #76]	@ (8000b68 <reg_OpMetrics_handler+0xb0>)
 8000b1a:	4358      	muls	r0, r3
 8000b1c:	f7ff fbda 	bl	80002d4 <__udivsi3>
 8000b20:	0143      	lsls	r3, r0, #5
 8000b22:	1a1b      	subs	r3, r3, r0
 8000b24:	009b      	lsls	r3, r3, #2
 8000b26:	1818      	adds	r0, r3, r0
 8000b28:	4b10      	ldr	r3, [pc, #64]	@ (8000b6c <reg_OpMetrics_handler+0xb4>)
 8000b2a:	00c0      	lsls	r0, r0, #3
 8000b2c:	469c      	mov	ip, r3
 8000b2e:	4910      	ldr	r1, [pc, #64]	@ (8000b70 <reg_OpMetrics_handler+0xb8>)
 8000b30:	4460      	add	r0, ip
 8000b32:	f7ff fc59 	bl	80003e8 <__divsi3>
 8000b36:	2390      	movs	r3, #144	@ 0x90
 8000b38:	301e      	adds	r0, #30
 8000b3a:	0e02      	lsrs	r2, r0, #24
 8000b3c:	005b      	lsls	r3, r3, #1
 8000b3e:	54e2      	strb	r2, [r4, r3]
 8000b40:	1402      	asrs	r2, r0, #16
 8000b42:	3304      	adds	r3, #4
 8000b44:	54e2      	strb	r2, [r4, r3]
 8000b46:	1202      	asrs	r2, r0, #8
 8000b48:	3304      	adds	r3, #4
 8000b4a:	54e2      	strb	r2, [r4, r3]
 8000b4c:	3304      	adds	r3, #4
 8000b4e:	54e0      	strb	r0, [r4, r3]
 8000b50:	b002      	add	sp, #8
 8000b52:	bd70      	pop	{r4, r5, r6, pc}
 8000b54:	000186a0 	.word	0x000186a0
 8000b58:	00007530 	.word	0x00007530
 8000b5c:	200000bc 	.word	0x200000bc
 8000b60:	00050910 	.word	0x00050910
 8000b64:	00000ce4 	.word	0x00000ce4
 8000b68:	00000fff 	.word	0x00000fff
 8000b6c:	fff46740 	.word	0xfff46740
 8000b70:	000009e2 	.word	0x000009e2

08000b74 <reg_trackChanges>:
 8000b74:	2340      	movs	r3, #64	@ 0x40
 8000b76:	b570      	push	{r4, r5, r6, lr}
 8000b78:	4d09      	ldr	r5, [pc, #36]	@ (8000ba0 <reg_trackChanges+0x2c>)
 8000b7a:	4c0a      	ldr	r4, [pc, #40]	@ (8000ba4 <reg_trackChanges+0x30>)
 8000b7c:	5ceb      	ldrb	r3, [r5, r3]
 8000b7e:	7822      	ldrb	r2, [r4, #0]
 8000b80:	429a      	cmp	r2, r3
 8000b82:	d006      	beq.n	8000b92 <reg_trackChanges+0x1e>
 8000b84:	07db      	lsls	r3, r3, #31
 8000b86:	d407      	bmi.n	8000b98 <reg_trackChanges+0x24>
 8000b88:	f001 f960 	bl	8001e4c <SDK_PWM_Stop>
 8000b8c:	2340      	movs	r3, #64	@ 0x40
 8000b8e:	5ceb      	ldrb	r3, [r5, r3]
 8000b90:	7023      	strb	r3, [r4, #0]
 8000b92:	f7ff ff91 	bl	8000ab8 <reg_OpMetrics_handler>
 8000b96:	bd70      	pop	{r4, r5, r6, pc}
 8000b98:	f001 f94a 	bl	8001e30 <SDK_PWM_Start>
 8000b9c:	e7f6      	b.n	8000b8c <reg_trackChanges+0x18>
 8000b9e:	46c0      	nop			@ (mov r8, r8)
 8000ba0:	200000bc 	.word	0x200000bc
 8000ba4:	200000b9 	.word	0x200000b9

08000ba8 <main>:
 8000ba8:	b570      	push	{r4, r5, r6, lr}
 8000baa:	2500      	movs	r5, #0
 8000bac:	f000 ffee 	bl	8001b8c <InitializeSystem>
 8000bb0:	f000 f9a2 	bl	8000ef8 <InitializePeripherals>
 8000bb4:	f001 f9e8 	bl	8001f88 <SEA_USART1_UART_Init>
 8000bb8:	f7ff ff2c 	bl	8000a14 <reg_init>
 8000bbc:	f7ff fd00 	bl	80005c0 <comms_init>
 8000bc0:	4e0a      	ldr	r6, [pc, #40]	@ (8000bec <main+0x44>)
 8000bc2:	f001 f959 	bl	8001e78 <GetmsTicks>
 8000bc6:	0004      	movs	r4, r0
 8000bc8:	6030      	str	r0, [r6, #0]
 8000bca:	1b43      	subs	r3, r0, r5
 8000bcc:	2b09      	cmp	r3, #9
 8000bce:	d9f8      	bls.n	8000bc2 <main+0x1a>
 8000bd0:	f000 fc2a 	bl	8001428 <updatePowerFsm>
 8000bd4:	f000 f972 	bl	8000ebc <updateLedState>
 8000bd8:	f7ff feb0 	bl	800093c <comms_handler>
 8000bdc:	f7ff ffca 	bl	8000b74 <reg_trackChanges>
 8000be0:	2001      	movs	r0, #1
 8000be2:	f000 fed3 	bl	800198c <LL_mDelay>
 8000be6:	0025      	movs	r5, r4
 8000be8:	e7eb      	b.n	8000bc2 <main+0x1a>
 8000bea:	46c0      	nop			@ (mov r8, r8)
 8000bec:	200002f4 	.word	0x200002f4

08000bf0 <LedSwirl>:
 8000bf0:	b5f0      	push	{r4, r5, r6, r7, lr}
 8000bf2:	4f3a      	ldr	r7, [pc, #232]	@ (8000cdc <LedSwirl+0xec>)
 8000bf4:	4c3a      	ldr	r4, [pc, #232]	@ (8000ce0 <LedSwirl+0xf0>)
 8000bf6:	4d3b      	ldr	r5, [pc, #236]	@ (8000ce4 <LedSwirl+0xf4>)
 8000bf8:	483b      	ldr	r0, [pc, #236]	@ (8000ce8 <LedSwirl+0xf8>)
 8000bfa:	783e      	ldrb	r6, [r7, #0]
 8000bfc:	7823      	ldrb	r3, [r4, #0]
 8000bfe:	7829      	ldrb	r1, [r5, #0]
 8000c00:	7802      	ldrb	r2, [r0, #0]
 8000c02:	b083      	sub	sp, #12
 8000c04:	2e00      	cmp	r6, #0
 8000c06:	d11a      	bne.n	8000c3e <LedSwirl+0x4e>
 8000c08:	1c15      	adds	r5, r2, #0
 8000c0a:	2afa      	cmp	r2, #250	@ 0xfa
 8000c0c:	d832      	bhi.n	8000c74 <LedSwirl+0x84>
 8000c0e:	3505      	adds	r5, #5
 8000c10:	b2ea      	uxtb	r2, r5
 8000c12:	7002      	strb	r2, [r0, #0]
 8000c14:	1c18      	adds	r0, r3, #0
 8000c16:	2b05      	cmp	r3, #5
 8000c18:	d325      	bcc.n	8000c66 <LedSwirl+0x76>
 8000c1a:	3805      	subs	r0, #5
 8000c1c:	b2c3      	uxtb	r3, r0
 8000c1e:	7023      	strb	r3, [r4, #0]
 8000c20:	2aff      	cmp	r2, #255	@ 0xff
 8000c22:	d046      	beq.n	8000cb2 <LedSwirl+0xc2>
 8000c24:	9100      	str	r1, [sp, #0]
 8000c26:	2007      	movs	r0, #7
 8000c28:	211f      	movs	r1, #31
 8000c2a:	f000 fce3 	bl	80015f4 <GenerateColorCommand>
 8000c2e:	4b2f      	ldr	r3, [pc, #188]	@ (8000cec <LedSwirl+0xfc>)
 8000c30:	2104      	movs	r1, #4
 8000c32:	6018      	str	r0, [r3, #0]
 8000c34:	0018      	movs	r0, r3
 8000c36:	f000 fced 	bl	8001614 <SendColorCommandArray>
 8000c3a:	b003      	add	sp, #12
 8000c3c:	bdf0      	pop	{r4, r5, r6, r7, pc}
 8000c3e:	2e01      	cmp	r6, #1
 8000c40:	d021      	beq.n	8000c86 <LedSwirl+0x96>
 8000c42:	1c0c      	adds	r4, r1, #0
 8000c44:	29fa      	cmp	r1, #250	@ 0xfa
 8000c46:	d840      	bhi.n	8000cca <LedSwirl+0xda>
 8000c48:	3405      	adds	r4, #5
 8000c4a:	b2e1      	uxtb	r1, r4
 8000c4c:	7029      	strb	r1, [r5, #0]
 8000c4e:	1c14      	adds	r4, r2, #0
 8000c50:	2a05      	cmp	r2, #5
 8000c52:	d333      	bcc.n	8000cbc <LedSwirl+0xcc>
 8000c54:	3c05      	subs	r4, #5
 8000c56:	b2e2      	uxtb	r2, r4
 8000c58:	7002      	strb	r2, [r0, #0]
 8000c5a:	29ff      	cmp	r1, #255	@ 0xff
 8000c5c:	d1e2      	bne.n	8000c24 <LedSwirl+0x34>
 8000c5e:	2a00      	cmp	r2, #0
 8000c60:	d1e0      	bne.n	8000c24 <LedSwirl+0x34>
 8000c62:	703a      	strb	r2, [r7, #0]
 8000c64:	e7de      	b.n	8000c24 <LedSwirl+0x34>
 8000c66:	2005      	movs	r0, #5
 8000c68:	3805      	subs	r0, #5
 8000c6a:	b2c3      	uxtb	r3, r0
 8000c6c:	7023      	strb	r3, [r4, #0]
 8000c6e:	2aff      	cmp	r2, #255	@ 0xff
 8000c70:	d1d8      	bne.n	8000c24 <LedSwirl+0x34>
 8000c72:	e01e      	b.n	8000cb2 <LedSwirl+0xc2>
 8000c74:	22fa      	movs	r2, #250	@ 0xfa
 8000c76:	1c15      	adds	r5, r2, #0
 8000c78:	3505      	adds	r5, #5
 8000c7a:	b2ea      	uxtb	r2, r5
 8000c7c:	7002      	strb	r2, [r0, #0]
 8000c7e:	1c18      	adds	r0, r3, #0
 8000c80:	2b05      	cmp	r3, #5
 8000c82:	d2ca      	bcs.n	8000c1a <LedSwirl+0x2a>
 8000c84:	e7ef      	b.n	8000c66 <LedSwirl+0x76>
 8000c86:	1c18      	adds	r0, r3, #0
 8000c88:	2bfa      	cmp	r3, #250	@ 0xfa
 8000c8a:	d901      	bls.n	8000c90 <LedSwirl+0xa0>
 8000c8c:	23fa      	movs	r3, #250	@ 0xfa
 8000c8e:	1c18      	adds	r0, r3, #0
 8000c90:	3005      	adds	r0, #5
 8000c92:	b2c3      	uxtb	r3, r0
 8000c94:	7023      	strb	r3, [r4, #0]
 8000c96:	1c08      	adds	r0, r1, #0
 8000c98:	2905      	cmp	r1, #5
 8000c9a:	d200      	bcs.n	8000c9e <LedSwirl+0xae>
 8000c9c:	2005      	movs	r0, #5
 8000c9e:	3805      	subs	r0, #5
 8000ca0:	b2c1      	uxtb	r1, r0
 8000ca2:	7029      	strb	r1, [r5, #0]
 8000ca4:	2bff      	cmp	r3, #255	@ 0xff
 8000ca6:	d1bd      	bne.n	8000c24 <LedSwirl+0x34>
 8000ca8:	2900      	cmp	r1, #0
 8000caa:	d1bb      	bne.n	8000c24 <LedSwirl+0x34>
 8000cac:	2002      	movs	r0, #2
 8000cae:	7038      	strb	r0, [r7, #0]
 8000cb0:	e7b8      	b.n	8000c24 <LedSwirl+0x34>
 8000cb2:	2b00      	cmp	r3, #0
 8000cb4:	d1b6      	bne.n	8000c24 <LedSwirl+0x34>
 8000cb6:	2001      	movs	r0, #1
 8000cb8:	7038      	strb	r0, [r7, #0]
 8000cba:	e7b3      	b.n	8000c24 <LedSwirl+0x34>
 8000cbc:	2405      	movs	r4, #5
 8000cbe:	3c05      	subs	r4, #5
 8000cc0:	b2e2      	uxtb	r2, r4
 8000cc2:	7002      	strb	r2, [r0, #0]
 8000cc4:	29ff      	cmp	r1, #255	@ 0xff
 8000cc6:	d1ad      	bne.n	8000c24 <LedSwirl+0x34>
 8000cc8:	e7c9      	b.n	8000c5e <LedSwirl+0x6e>
 8000cca:	21fa      	movs	r1, #250	@ 0xfa
 8000ccc:	1c0c      	adds	r4, r1, #0
 8000cce:	3405      	adds	r4, #5
 8000cd0:	b2e1      	uxtb	r1, r4
 8000cd2:	7029      	strb	r1, [r5, #0]
 8000cd4:	1c14      	adds	r4, r2, #0
 8000cd6:	2a05      	cmp	r2, #5
 8000cd8:	d2bc      	bcs.n	8000c54 <LedSwirl+0x64>
 8000cda:	e7ef      	b.n	8000cbc <LedSwirl+0xcc>
 8000cdc:	20000002 	.word	0x20000002
 8000ce0:	20000315 	.word	0x20000315
 8000ce4:	20000314 	.word	0x20000314
 8000ce8:	20000001 	.word	0x20000001
 8000cec:	20000310 	.word	0x20000310

08000cf0 <LedsToGreen>:
 8000cf0:	2300      	movs	r3, #0
 8000cf2:	b500      	push	{lr}
 8000cf4:	b085      	sub	sp, #20
 8000cf6:	2200      	movs	r2, #0
 8000cf8:	9300      	str	r3, [sp, #0]
 8000cfa:	211f      	movs	r1, #31
 8000cfc:	3301      	adds	r3, #1
 8000cfe:	2007      	movs	r0, #7
 8000d00:	f000 fc78 	bl	80015f4 <GenerateColorCommand>
 8000d04:	2104      	movs	r1, #4
 8000d06:	9003      	str	r0, [sp, #12]
 8000d08:	a803      	add	r0, sp, #12
 8000d0a:	f000 fc83 	bl	8001614 <SendColorCommandArray>
 8000d0e:	b005      	add	sp, #20
 8000d10:	bd00      	pop	{pc}
 8000d12:	46c0      	nop			@ (mov r8, r8)

08000d14 <LedsToPulsingBlue>:
 8000d14:	b530      	push	{r4, r5, lr}
 8000d16:	b085      	sub	sp, #20
 8000d18:	f001 f8ae 	bl	8001e78 <GetmsTicks>
 8000d1c:	4d11      	ldr	r5, [pc, #68]	@ (8000d64 <LedsToPulsingBlue+0x50>)
 8000d1e:	0004      	movs	r4, r0
 8000d20:	682b      	ldr	r3, [r5, #0]
 8000d22:	1ac3      	subs	r3, r0, r3
 8000d24:	2b09      	cmp	r3, #9
 8000d26:	d917      	bls.n	8000d58 <LedsToPulsingBlue+0x44>
 8000d28:	4a0f      	ldr	r2, [pc, #60]	@ (8000d68 <LedsToPulsingBlue+0x54>)
 8000d2a:	4810      	ldr	r0, [pc, #64]	@ (8000d6c <LedsToPulsingBlue+0x58>)
 8000d2c:	7813      	ldrb	r3, [r2, #0]
 8000d2e:	7801      	ldrb	r1, [r0, #0]
 8000d30:	18cb      	adds	r3, r1, r3
 8000d32:	b2db      	uxtb	r3, r3
 8000d34:	7013      	strb	r3, [r2, #0]
 8000d36:	1e5a      	subs	r2, r3, #1
 8000d38:	b2d2      	uxtb	r2, r2
 8000d3a:	2afd      	cmp	r2, #253	@ 0xfd
 8000d3c:	d80e      	bhi.n	8000d5c <LedsToPulsingBlue+0x48>
 8000d3e:	2200      	movs	r2, #0
 8000d40:	211f      	movs	r1, #31
 8000d42:	9300      	str	r3, [sp, #0]
 8000d44:	2007      	movs	r0, #7
 8000d46:	2300      	movs	r3, #0
 8000d48:	f000 fc54 	bl	80015f4 <GenerateColorCommand>
 8000d4c:	2104      	movs	r1, #4
 8000d4e:	9003      	str	r0, [sp, #12]
 8000d50:	a803      	add	r0, sp, #12
 8000d52:	f000 fc5f 	bl	8001614 <SendColorCommandArray>
 8000d56:	602c      	str	r4, [r5, #0]
 8000d58:	b005      	add	sp, #20
 8000d5a:	bd30      	pop	{r4, r5, pc}
 8000d5c:	4249      	negs	r1, r1
 8000d5e:	7001      	strb	r1, [r0, #0]
 8000d60:	e7ed      	b.n	8000d3e <LedsToPulsingBlue+0x2a>
 8000d62:	46c0      	nop			@ (mov r8, r8)
 8000d64:	2000030c 	.word	0x2000030c
 8000d68:	20000308 	.word	0x20000308
 8000d6c:	20000000 	.word	0x20000000

08000d70 <LedsToBlinkingYellow>:
 8000d70:	b570      	push	{r4, r5, r6, lr}
 8000d72:	b084      	sub	sp, #16
 8000d74:	f001 f880 	bl	8001e78 <GetmsTicks>
 8000d78:	22fa      	movs	r2, #250	@ 0xfa
 8000d7a:	4d13      	ldr	r5, [pc, #76]	@ (8000dc8 <LedsToBlinkingYellow+0x58>)
 8000d7c:	0004      	movs	r4, r0
 8000d7e:	682b      	ldr	r3, [r5, #0]
 8000d80:	0052      	lsls	r2, r2, #1
 8000d82:	1ac3      	subs	r3, r0, r3
 8000d84:	4293      	cmp	r3, r2
 8000d86:	d314      	bcc.n	8000db2 <LedsToBlinkingYellow+0x42>
 8000d88:	4e10      	ldr	r6, [pc, #64]	@ (8000dcc <LedsToBlinkingYellow+0x5c>)
 8000d8a:	7833      	ldrb	r3, [r6, #0]
 8000d8c:	2b00      	cmp	r3, #0
 8000d8e:	d112      	bne.n	8000db6 <LedsToBlinkingYellow+0x46>
 8000d90:	9300      	str	r3, [sp, #0]
 8000d92:	22ff      	movs	r2, #255	@ 0xff
 8000d94:	23ff      	movs	r3, #255	@ 0xff
 8000d96:	211f      	movs	r1, #31
 8000d98:	2007      	movs	r0, #7
 8000d9a:	f000 fc2b 	bl	80015f4 <GenerateColorCommand>
 8000d9e:	9003      	str	r0, [sp, #12]
 8000da0:	2104      	movs	r1, #4
 8000da2:	a803      	add	r0, sp, #12
 8000da4:	f000 fc36 	bl	8001614 <SendColorCommandArray>
 8000da8:	7833      	ldrb	r3, [r6, #0]
 8000daa:	602c      	str	r4, [r5, #0]
 8000dac:	425a      	negs	r2, r3
 8000dae:	4153      	adcs	r3, r2
 8000db0:	7033      	strb	r3, [r6, #0]
 8000db2:	b004      	add	sp, #16
 8000db4:	bd70      	pop	{r4, r5, r6, pc}
 8000db6:	2300      	movs	r3, #0
 8000db8:	2200      	movs	r2, #0
 8000dba:	211f      	movs	r1, #31
 8000dbc:	9300      	str	r3, [sp, #0]
 8000dbe:	2007      	movs	r0, #7
 8000dc0:	f000 fc18 	bl	80015f4 <GenerateColorCommand>
 8000dc4:	e7eb      	b.n	8000d9e <LedsToBlinkingYellow+0x2e>
 8000dc6:	46c0      	nop			@ (mov r8, r8)
 8000dc8:	20000304 	.word	0x20000304
 8000dcc:	20000300 	.word	0x20000300

08000dd0 <LedsToFlashingRed>:
 8000dd0:	b570      	push	{r4, r5, r6, lr}
 8000dd2:	b084      	sub	sp, #16
 8000dd4:	f001 f850 	bl	8001e78 <GetmsTicks>
 8000dd8:	4d12      	ldr	r5, [pc, #72]	@ (8000e24 <LedsToFlashingRed+0x54>)
 8000dda:	0004      	movs	r4, r0
 8000ddc:	682b      	ldr	r3, [r5, #0]
 8000dde:	1ac3      	subs	r3, r0, r3
 8000de0:	2b63      	cmp	r3, #99	@ 0x63
 8000de2:	d914      	bls.n	8000e0e <LedsToFlashingRed+0x3e>
 8000de4:	4e10      	ldr	r6, [pc, #64]	@ (8000e28 <LedsToFlashingRed+0x58>)
 8000de6:	7833      	ldrb	r3, [r6, #0]
 8000de8:	2b00      	cmp	r3, #0
 8000dea:	d112      	bne.n	8000e12 <LedsToFlashingRed+0x42>
 8000dec:	9300      	str	r3, [sp, #0]
 8000dee:	22ff      	movs	r2, #255	@ 0xff
 8000df0:	2300      	movs	r3, #0
 8000df2:	211f      	movs	r1, #31
 8000df4:	2007      	movs	r0, #7
 8000df6:	f000 fbfd 	bl	80015f4 <GenerateColorCommand>
 8000dfa:	9003      	str	r0, [sp, #12]
 8000dfc:	2104      	movs	r1, #4
 8000dfe:	a803      	add	r0, sp, #12
 8000e00:	f000 fc08 	bl	8001614 <SendColorCommandArray>
 8000e04:	7833      	ldrb	r3, [r6, #0]
 8000e06:	602c      	str	r4, [r5, #0]
 8000e08:	425a      	negs	r2, r3
 8000e0a:	4153      	adcs	r3, r2
 8000e0c:	7033      	strb	r3, [r6, #0]
 8000e0e:	b004      	add	sp, #16
 8000e10:	bd70      	pop	{r4, r5, r6, pc}
 8000e12:	2300      	movs	r3, #0
 8000e14:	2200      	movs	r2, #0
 8000e16:	211f      	movs	r1, #31
 8000e18:	9300      	str	r3, [sp, #0]
 8000e1a:	2007      	movs	r0, #7
 8000e1c:	f000 fbea 	bl	80015f4 <GenerateColorCommand>
 8000e20:	e7eb      	b.n	8000dfa <LedsToFlashingRed+0x2a>
 8000e22:	46c0      	nop			@ (mov r8, r8)
 8000e24:	200002fc 	.word	0x200002fc
 8000e28:	200002f8 	.word	0x200002f8

08000e2c <LedsToUserDefined>:
 8000e2c:	b510      	push	{r4, lr}
 8000e2e:	b084      	sub	sp, #16
 8000e30:	ac02      	add	r4, sp, #8
 8000e32:	0020      	movs	r0, r4
 8000e34:	2203      	movs	r2, #3
 8000e36:	2111      	movs	r1, #17
 8000e38:	f7ff fe04 	bl	8000a44 <reg_read>
 8000e3c:	78a1      	ldrb	r1, [r4, #2]
 8000e3e:	7863      	ldrb	r3, [r4, #1]
 8000e40:	7822      	ldrb	r2, [r4, #0]
 8000e42:	2007      	movs	r0, #7
 8000e44:	9100      	str	r1, [sp, #0]
 8000e46:	211f      	movs	r1, #31
 8000e48:	f000 fbd4 	bl	80015f4 <GenerateColorCommand>
 8000e4c:	2104      	movs	r1, #4
 8000e4e:	9003      	str	r0, [sp, #12]
 8000e50:	a803      	add	r0, sp, #12
 8000e52:	f000 fbdf 	bl	8001614 <SendColorCommandArray>
 8000e56:	b004      	add	sp, #16
 8000e58:	bd10      	pop	{r4, pc}
 8000e5a:	46c0      	nop			@ (mov r8, r8)

08000e5c <getColorForActualState>:
 8000e5c:	b530      	push	{r4, r5, lr}
 8000e5e:	b083      	sub	sp, #12
 8000e60:	2300      	movs	r3, #0
 8000e62:	466a      	mov	r2, sp
 8000e64:	71d3      	strb	r3, [r2, #7]
 8000e66:	466b      	mov	r3, sp
 8000e68:	2201      	movs	r2, #1
 8000e6a:	1dd8      	adds	r0, r3, #7
 8000e6c:	2110      	movs	r1, #16
 8000e6e:	f7ff fde9 	bl	8000a44 <reg_read>
 8000e72:	466b      	mov	r3, sp
 8000e74:	2502      	movs	r5, #2
 8000e76:	79db      	ldrb	r3, [r3, #7]
 8000e78:	421d      	tst	r5, r3
 8000e7a:	d10e      	bne.n	8000e9a <getColorForActualState+0x3e>
 8000e7c:	f000 f926 	bl	80010cc <getGlobalState>
 8000e80:	0004      	movs	r4, r0
 8000e82:	f000 f943 	bl	800110c <rpiState>
 8000e86:	2800      	cmp	r0, #0
 8000e88:	d005      	beq.n	8000e96 <getColorForActualState+0x3a>
 8000e8a:	2301      	movs	r3, #1
 8000e8c:	0018      	movs	r0, r3
 8000e8e:	4020      	ands	r0, r4
 8000e90:	4223      	tst	r3, r4
 8000e92:	d004      	beq.n	8000e9e <getColorForActualState+0x42>
 8000e94:	2002      	movs	r0, #2
 8000e96:	b003      	add	sp, #12
 8000e98:	bd30      	pop	{r4, r5, pc}
 8000e9a:	2005      	movs	r0, #5
 8000e9c:	e7fb      	b.n	8000e96 <getColorForActualState+0x3a>
 8000e9e:	06a3      	lsls	r3, r4, #26
 8000ea0:	d4f9      	bmi.n	8000e96 <getColorForActualState+0x3a>
 8000ea2:	06e3      	lsls	r3, r4, #27
 8000ea4:	d406      	bmi.n	8000eb4 <getColorForActualState+0x58>
 8000ea6:	0723      	lsls	r3, r4, #28
 8000ea8:	d406      	bmi.n	8000eb8 <getColorForActualState+0x5c>
 8000eaa:	0664      	lsls	r4, r4, #25
 8000eac:	17e0      	asrs	r0, r4, #31
 8000eae:	4028      	ands	r0, r5
 8000eb0:	3001      	adds	r0, #1
 8000eb2:	e7f0      	b.n	8000e96 <getColorForActualState+0x3a>
 8000eb4:	2003      	movs	r0, #3
 8000eb6:	e7ee      	b.n	8000e96 <getColorForActualState+0x3a>
 8000eb8:	2004      	movs	r0, #4
 8000eba:	e7ec      	b.n	8000e96 <getColorForActualState+0x3a>

08000ebc <updateLedState>:
 8000ebc:	b510      	push	{r4, lr}
 8000ebe:	f7ff ffcd 	bl	8000e5c <getColorForActualState>
 8000ec2:	2805      	cmp	r0, #5
 8000ec4:	d803      	bhi.n	8000ece <updateLedState+0x12>
 8000ec6:	4b0b      	ldr	r3, [pc, #44]	@ (8000ef4 <updateLedState+0x38>)
 8000ec8:	0080      	lsls	r0, r0, #2
 8000eca:	581b      	ldr	r3, [r3, r0]
 8000ecc:	469f      	mov	pc, r3
 8000ece:	f7ff ff0f 	bl	8000cf0 <LedsToGreen>
 8000ed2:	bd10      	pop	{r4, pc}
 8000ed4:	f7ff ffaa 	bl	8000e2c <LedsToUserDefined>
 8000ed8:	e7fb      	b.n	8000ed2 <updateLedState+0x16>
 8000eda:	f7ff fe89 	bl	8000bf0 <LedSwirl>
 8000ede:	e7f8      	b.n	8000ed2 <updateLedState+0x16>
 8000ee0:	f7ff ff76 	bl	8000dd0 <LedsToFlashingRed>
 8000ee4:	e7f5      	b.n	8000ed2 <updateLedState+0x16>
 8000ee6:	f7ff ff15 	bl	8000d14 <LedsToPulsingBlue>
 8000eea:	e7f2      	b.n	8000ed2 <updateLedState+0x16>
 8000eec:	f7ff ff40 	bl	8000d70 <LedsToBlinkingYellow>
 8000ef0:	e7ef      	b.n	8000ed2 <updateLedState+0x16>
 8000ef2:	46c0      	nop			@ (mov r8, r8)
 8000ef4:	08002674 	.word	0x08002674

08000ef8 <InitializePeripherals>:
 8000ef8:	b5f0      	push	{r4, r5, r6, r7, lr}
 8000efa:	46ce      	mov	lr, r9
 8000efc:	4647      	mov	r7, r8
 8000efe:	b580      	push	{r7, lr}
 8000f00:	b091      	sub	sp, #68	@ 0x44
 8000f02:	f000 fe73 	bl	8001bec <SDK_GPIO_Init>
 8000f06:	4b5a      	ldr	r3, [pc, #360]	@ (8001070 <InitializePeripherals+0x178>)
 8000f08:	25a0      	movs	r5, #160	@ 0xa0
 8000f0a:	9304      	str	r3, [sp, #16]
 8000f0c:	2320      	movs	r3, #32
 8000f0e:	2400      	movs	r4, #0
 8000f10:	9303      	str	r3, [sp, #12]
 8000f12:	3b1f      	subs	r3, #31
 8000f14:	4e57      	ldr	r6, [pc, #348]	@ (8001074 <InitializePeripherals+0x17c>)
 8000f16:	9302      	str	r3, [sp, #8]
 8000f18:	3306      	adds	r3, #6
 8000f1a:	9301      	str	r3, [sp, #4]
 8000f1c:	3b04      	subs	r3, #4
 8000f1e:	05ed      	lsls	r5, r5, #23
 8000f20:	0030      	movs	r0, r6
 8000f22:	9300      	str	r3, [sp, #0]
 8000f24:	2200      	movs	r2, #0
 8000f26:	2300      	movs	r3, #0
 8000f28:	2120      	movs	r1, #32
 8000f2a:	f000 fed1 	bl	8001cd0 <SDK_EXTI_ConfigPin>
 8000f2e:	0028      	movs	r0, r5
 8000f30:	9401      	str	r4, [sp, #4]
 8000f32:	9400      	str	r4, [sp, #0]
 8000f34:	2300      	movs	r3, #0
 8000f36:	2201      	movs	r2, #1
 8000f38:	2110      	movs	r1, #16
 8000f3a:	f000 feb3 	bl	8001ca4 <SDK_GPIO_ConfigPin>
 8000f3e:	0028      	movs	r0, r5
 8000f40:	9401      	str	r4, [sp, #4]
 8000f42:	9400      	str	r4, [sp, #0]
 8000f44:	2300      	movs	r3, #0
 8000f46:	2201      	movs	r2, #1
 8000f48:	2140      	movs	r1, #64	@ 0x40
 8000f4a:	f000 feab 	bl	8001ca4 <SDK_GPIO_ConfigPin>
 8000f4e:	0028      	movs	r0, r5
 8000f50:	9401      	str	r4, [sp, #4]
 8000f52:	9400      	str	r4, [sp, #0]
 8000f54:	2300      	movs	r3, #0
 8000f56:	2201      	movs	r2, #1
 8000f58:	2180      	movs	r1, #128	@ 0x80
 8000f5a:	f000 fea3 	bl	8001ca4 <SDK_GPIO_ConfigPin>
 8000f5e:	2380      	movs	r3, #128	@ 0x80
 8000f60:	005b      	lsls	r3, r3, #1
 8000f62:	4699      	mov	r9, r3
 8000f64:	0028      	movs	r0, r5
 8000f66:	9401      	str	r4, [sp, #4]
 8000f68:	9400      	str	r4, [sp, #0]
 8000f6a:	4649      	mov	r1, r9
 8000f6c:	2300      	movs	r3, #0
 8000f6e:	2201      	movs	r2, #1
 8000f70:	f000 fe98 	bl	8001ca4 <SDK_GPIO_ConfigPin>
 8000f74:	2380      	movs	r3, #128	@ 0x80
 8000f76:	015b      	lsls	r3, r3, #5
 8000f78:	4698      	mov	r8, r3
 8000f7a:	2780      	movs	r7, #128	@ 0x80
 8000f7c:	0028      	movs	r0, r5
 8000f7e:	9401      	str	r4, [sp, #4]
 8000f80:	9400      	str	r4, [sp, #0]
 8000f82:	4641      	mov	r1, r8
 8000f84:	023f      	lsls	r7, r7, #8
 8000f86:	2300      	movs	r3, #0
 8000f88:	2201      	movs	r2, #1
 8000f8a:	f000 fe8b 	bl	8001ca4 <SDK_GPIO_ConfigPin>
 8000f8e:	2300      	movs	r3, #0
 8000f90:	0028      	movs	r0, r5
 8000f92:	9401      	str	r4, [sp, #4]
 8000f94:	9400      	str	r4, [sp, #0]
 8000f96:	0039      	movs	r1, r7
 8000f98:	2201      	movs	r2, #1
 8000f9a:	f000 fe83 	bl	8001ca4 <SDK_GPIO_ConfigPin>
 8000f9e:	0028      	movs	r0, r5
 8000fa0:	2201      	movs	r2, #1
 8000fa2:	2110      	movs	r1, #16
 8000fa4:	f000 fe8e 	bl	8001cc4 <SDK_GPIO_WritePin>
 8000fa8:	0028      	movs	r0, r5
 8000faa:	2201      	movs	r2, #1
 8000fac:	2140      	movs	r1, #64	@ 0x40
 8000fae:	f000 fe89 	bl	8001cc4 <SDK_GPIO_WritePin>
 8000fb2:	0028      	movs	r0, r5
 8000fb4:	2200      	movs	r2, #0
 8000fb6:	2180      	movs	r1, #128	@ 0x80
 8000fb8:	f000 fe84 	bl	8001cc4 <SDK_GPIO_WritePin>
 8000fbc:	0028      	movs	r0, r5
 8000fbe:	4649      	mov	r1, r9
 8000fc0:	2200      	movs	r2, #0
 8000fc2:	f000 fe7f 	bl	8001cc4 <SDK_GPIO_WritePin>
 8000fc6:	0028      	movs	r0, r5
 8000fc8:	4641      	mov	r1, r8
 8000fca:	2200      	movs	r2, #0
 8000fcc:	f000 fe7a 	bl	8001cc4 <SDK_GPIO_WritePin>
 8000fd0:	0028      	movs	r0, r5
 8000fd2:	0039      	movs	r1, r7
 8000fd4:	2201      	movs	r2, #1
 8000fd6:	f000 fe75 	bl	8001cc4 <SDK_GPIO_WritePin>
 8000fda:	9401      	str	r4, [sp, #4]
 8000fdc:	9400      	str	r4, [sp, #0]
 8000fde:	0030      	movs	r0, r6
 8000fe0:	2300      	movs	r3, #0
 8000fe2:	2201      	movs	r2, #1
 8000fe4:	2101      	movs	r1, #1
 8000fe6:	f000 fe5d 	bl	8001ca4 <SDK_GPIO_ConfigPin>
 8000fea:	9401      	str	r4, [sp, #4]
 8000fec:	9400      	str	r4, [sp, #0]
 8000fee:	0030      	movs	r0, r6
 8000ff0:	2300      	movs	r3, #0
 8000ff2:	2201      	movs	r2, #1
 8000ff4:	2102      	movs	r1, #2
 8000ff6:	f000 fe55 	bl	8001ca4 <SDK_GPIO_ConfigPin>
 8000ffa:	9401      	str	r4, [sp, #4]
 8000ffc:	9400      	str	r4, [sp, #0]
 8000ffe:	0030      	movs	r0, r6
 8001000:	2300      	movs	r3, #0
 8001002:	2201      	movs	r2, #1
 8001004:	2108      	movs	r1, #8
 8001006:	f000 fe4d 	bl	8001ca4 <SDK_GPIO_ConfigPin>
 800100a:	2300      	movs	r3, #0
 800100c:	9401      	str	r4, [sp, #4]
 800100e:	9400      	str	r4, [sp, #0]
 8001010:	0030      	movs	r0, r6
 8001012:	2201      	movs	r2, #1
 8001014:	2110      	movs	r1, #16
 8001016:	f000 fe45 	bl	8001ca4 <SDK_GPIO_ConfigPin>
 800101a:	0030      	movs	r0, r6
 800101c:	2200      	movs	r2, #0
 800101e:	2101      	movs	r1, #1
 8001020:	f000 fe50 	bl	8001cc4 <SDK_GPIO_WritePin>
 8001024:	0030      	movs	r0, r6
 8001026:	2200      	movs	r2, #0
 8001028:	2102      	movs	r1, #2
 800102a:	f000 fe4b 	bl	8001cc4 <SDK_GPIO_WritePin>
 800102e:	0030      	movs	r0, r6
 8001030:	2200      	movs	r2, #0
 8001032:	2108      	movs	r1, #8
 8001034:	f000 fe46 	bl	8001cc4 <SDK_GPIO_WritePin>
 8001038:	2110      	movs	r1, #16
 800103a:	0030      	movs	r0, r6
 800103c:	2201      	movs	r2, #1
 800103e:	f000 fe41 	bl	8001cc4 <SDK_GPIO_WritePin>
 8001042:	a806      	add	r0, sp, #24
 8001044:	0002      	movs	r2, r0
 8001046:	4b0c      	ldr	r3, [pc, #48]	@ (8001078 <InitializePeripherals+0x180>)
 8001048:	cb32      	ldmia	r3!, {r1, r4, r5}
 800104a:	c232      	stmia	r2!, {r1, r4, r5}
 800104c:	cb32      	ldmia	r3!, {r1, r4, r5}
 800104e:	c232      	stmia	r2!, {r1, r4, r5}
 8001050:	cb32      	ldmia	r3!, {r1, r4, r5}
 8001052:	c232      	stmia	r2!, {r1, r4, r5}
 8001054:	681b      	ldr	r3, [r3, #0]
 8001056:	2105      	movs	r1, #5
 8001058:	6013      	str	r3, [r2, #0]
 800105a:	f001 f90f 	bl	800227c <SDK_ADC_InitInterruptMode>
 800105e:	f001 f861 	bl	8002124 <SDK_SPI_Init>
 8001062:	f000 fe99 	bl	8001d98 <SDK_PWM_Init>
 8001066:	b011      	add	sp, #68	@ 0x44
 8001068:	bcc0      	pop	{r6, r7}
 800106a:	46b9      	mov	r9, r7
 800106c:	46b0      	mov	r8, r6
 800106e:	bdf0      	pop	{r4, r5, r6, r7, pc}
 8001070:	00080001 	.word	0x00080001
 8001074:	50000400 	.word	0x50000400
 8001078:	0800264c 	.word	0x0800264c

0800107c <SystemInit>:
 800107c:	2280      	movs	r2, #128	@ 0x80
 800107e:	4b02      	ldr	r3, [pc, #8]	@ (8001088 <SystemInit+0xc>)
 8001080:	0512      	lsls	r2, r2, #20
 8001082:	609a      	str	r2, [r3, #8]
 8001084:	4770      	bx	lr
 8001086:	46c0      	nop			@ (mov r8, r8)
 8001088:	e000ed00 	.word	0xe000ed00

0800108c <setGlobalState>:
 800108c:	b570      	push	{r4, r5, r6, lr}
 800108e:	0005      	movs	r5, r0
 8001090:	4c07      	ldr	r4, [pc, #28]	@ (80010b0 <setGlobalState+0x24>)
 8001092:	2201      	movs	r2, #1
 8001094:	0020      	movs	r0, r4
 8001096:	2108      	movs	r1, #8
 8001098:	f7ff fcd4 	bl	8000a44 <reg_read>
 800109c:	7823      	ldrb	r3, [r4, #0]
 800109e:	2201      	movs	r2, #1
 80010a0:	431d      	orrs	r5, r3
 80010a2:	0021      	movs	r1, r4
 80010a4:	2008      	movs	r0, #8
 80010a6:	7025      	strb	r5, [r4, #0]
 80010a8:	f7ff fcec 	bl	8000a84 <reg_write>
 80010ac:	bd70      	pop	{r4, r5, r6, pc}
 80010ae:	46c0      	nop			@ (mov r8, r8)
 80010b0:	20000316 	.word	0x20000316

080010b4 <resetGlobalState>:
 80010b4:	2300      	movs	r3, #0
 80010b6:	b510      	push	{r4, lr}
 80010b8:	4903      	ldr	r1, [pc, #12]	@ (80010c8 <resetGlobalState+0x14>)
 80010ba:	2201      	movs	r2, #1
 80010bc:	2008      	movs	r0, #8
 80010be:	700b      	strb	r3, [r1, #0]
 80010c0:	f7ff fce0 	bl	8000a84 <reg_write>
 80010c4:	bd10      	pop	{r4, pc}
 80010c6:	46c0      	nop			@ (mov r8, r8)
 80010c8:	20000316 	.word	0x20000316

080010cc <getGlobalState>:
 80010cc:	b510      	push	{r4, lr}
 80010ce:	4c04      	ldr	r4, [pc, #16]	@ (80010e0 <getGlobalState+0x14>)
 80010d0:	2201      	movs	r2, #1
 80010d2:	0020      	movs	r0, r4
 80010d4:	2108      	movs	r1, #8
 80010d6:	f7ff fcb5 	bl	8000a44 <reg_read>
 80010da:	7820      	ldrb	r0, [r4, #0]
 80010dc:	bd10      	pop	{r4, pc}
 80010de:	46c0      	nop			@ (mov r8, r8)
 80010e0:	20000316 	.word	0x20000316

080010e4 <clearGlobalState>:
 80010e4:	b570      	push	{r4, r5, r6, lr}
 80010e6:	0005      	movs	r5, r0
 80010e8:	4c07      	ldr	r4, [pc, #28]	@ (8001108 <clearGlobalState+0x24>)
 80010ea:	2201      	movs	r2, #1
 80010ec:	0020      	movs	r0, r4
 80010ee:	2108      	movs	r1, #8
 80010f0:	f7ff fca8 	bl	8000a44 <reg_read>
 80010f4:	7823      	ldrb	r3, [r4, #0]
 80010f6:	2201      	movs	r2, #1
 80010f8:	43ab      	bics	r3, r5
 80010fa:	0021      	movs	r1, r4
 80010fc:	2008      	movs	r0, #8
 80010fe:	7023      	strb	r3, [r4, #0]
 8001100:	f7ff fcc0 	bl	8000a84 <reg_write>
 8001104:	bd70      	pop	{r4, r5, r6, pc}
 8001106:	46c0      	nop			@ (mov r8, r8)
 8001108:	20000316 	.word	0x20000316

0800110c <rpiState>:
 800110c:	b500      	push	{lr}
 800110e:	b083      	sub	sp, #12
 8001110:	466a      	mov	r2, sp
 8001112:	2300      	movs	r3, #0
 8001114:	71d3      	strb	r3, [r2, #7]
 8001116:	466b      	mov	r3, sp
 8001118:	2201      	movs	r2, #1
 800111a:	1dd8      	adds	r0, r3, #7
 800111c:	210a      	movs	r1, #10
 800111e:	f7ff fc91 	bl	8000a44 <reg_read>
 8001122:	466b      	mov	r3, sp
 8001124:	79d8      	ldrb	r0, [r3, #7]
 8001126:	b003      	add	sp, #12
 8001128:	bd00      	pop	{pc}
 800112a:	46c0      	nop			@ (mov r8, r8)

0800112c <updateADCreadings>:
 800112c:	b570      	push	{r4, r5, r6, lr}
 800112e:	4c0d      	ldr	r4, [pc, #52]	@ (8001164 <updateADCreadings+0x38>)
 8001130:	4d0d      	ldr	r5, [pc, #52]	@ (8001168 <updateADCreadings+0x3c>)
 8001132:	0020      	movs	r0, r4
 8001134:	2108      	movs	r1, #8
 8001136:	f001 f985 	bl	8002444 <SDK_ADC_GetConversionResults>
 800113a:	0029      	movs	r1, r5
 800113c:	8820      	ldrh	r0, [r4, #0]
 800113e:	4a0b      	ldr	r2, [pc, #44]	@ (800116c <updateADCreadings+0x40>)
 8001140:	f001 f9cc 	bl	80024dc <SDK_ADC_calculateVin>
 8001144:	4e0a      	ldr	r6, [pc, #40]	@ (8001170 <updateADCreadings+0x44>)
 8001146:	0029      	movs	r1, r5
 8001148:	0032      	movs	r2, r6
 800114a:	8020      	strh	r0, [r4, #0]
 800114c:	8860      	ldrh	r0, [r4, #2]
 800114e:	f001 f9c5 	bl	80024dc <SDK_ADC_calculateVin>
 8001152:	0032      	movs	r2, r6
 8001154:	0029      	movs	r1, r5
 8001156:	8060      	strh	r0, [r4, #2]
 8001158:	88a0      	ldrh	r0, [r4, #4]
 800115a:	f001 f9bf 	bl	80024dc <SDK_ADC_calculateVin>
 800115e:	80a0      	strh	r0, [r4, #4]
 8001160:	bd70      	pop	{r4, r5, r6, pc}
 8001162:	46c0      	nop			@ (mov r8, r8)
 8001164:	20000330 	.word	0x20000330
 8001168:	000186a0 	.word	0x000186a0
 800116c:	00050910 	.word	0x00050910
 8001170:	00007530 	.word	0x00007530

08001174 <enableMainPower>:
 8001174:	2180      	movs	r1, #128	@ 0x80
 8001176:	20a0      	movs	r0, #160	@ 0xa0
 8001178:	b510      	push	{r4, lr}
 800117a:	2201      	movs	r2, #1
 800117c:	0149      	lsls	r1, r1, #5
 800117e:	05c0      	lsls	r0, r0, #23
 8001180:	f000 fda0 	bl	8001cc4 <SDK_GPIO_WritePin>
 8001184:	bd10      	pop	{r4, pc}
 8001186:	46c0      	nop			@ (mov r8, r8)

08001188 <disableMainPower>:
 8001188:	2180      	movs	r1, #128	@ 0x80
 800118a:	20a0      	movs	r0, #160	@ 0xa0
 800118c:	b510      	push	{r4, lr}
 800118e:	2200      	movs	r2, #0
 8001190:	0149      	lsls	r1, r1, #5
 8001192:	05c0      	lsls	r0, r0, #23
 8001194:	f000 fd96 	bl	8001cc4 <SDK_GPIO_WritePin>
 8001198:	bd10      	pop	{r4, pc}
 800119a:	46c0      	nop			@ (mov r8, r8)

0800119c <enableGlobalEnableRpi>:
 800119c:	2180      	movs	r1, #128	@ 0x80
 800119e:	20a0      	movs	r0, #160	@ 0xa0
 80011a0:	b510      	push	{r4, lr}
 80011a2:	2200      	movs	r2, #0
 80011a4:	0209      	lsls	r1, r1, #8
 80011a6:	05c0      	lsls	r0, r0, #23
 80011a8:	f000 fd8c 	bl	8001cc4 <SDK_GPIO_WritePin>
 80011ac:	bd10      	pop	{r4, pc}
 80011ae:	46c0      	nop			@ (mov r8, r8)

080011b0 <disableGlobalEnableRpi>:
 80011b0:	2180      	movs	r1, #128	@ 0x80
 80011b2:	20a0      	movs	r0, #160	@ 0xa0
 80011b4:	b510      	push	{r4, lr}
 80011b6:	2201      	movs	r2, #1
 80011b8:	0209      	lsls	r1, r1, #8
 80011ba:	05c0      	lsls	r0, r0, #23
 80011bc:	f000 fd82 	bl	8001cc4 <SDK_GPIO_WritePin>
 80011c0:	bd10      	pop	{r4, pc}
 80011c2:	46c0      	nop			@ (mov r8, r8)

080011c4 <enableUpsBoost>:
 80011c4:	2180      	movs	r1, #128	@ 0x80
 80011c6:	20a0      	movs	r0, #160	@ 0xa0
 80011c8:	b510      	push	{r4, lr}
 80011ca:	2201      	movs	r2, #1
 80011cc:	0049      	lsls	r1, r1, #1
 80011ce:	05c0      	lsls	r0, r0, #23
 80011d0:	f000 fd78 	bl	8001cc4 <SDK_GPIO_WritePin>
 80011d4:	bd10      	pop	{r4, pc}
 80011d6:	46c0      	nop			@ (mov r8, r8)

080011d8 <disableUpsBoost>:
 80011d8:	2180      	movs	r1, #128	@ 0x80
 80011da:	20a0      	movs	r0, #160	@ 0xa0
 80011dc:	b510      	push	{r4, lr}
 80011de:	2200      	movs	r2, #0
 80011e0:	0049      	lsls	r1, r1, #1
 80011e2:	05c0      	lsls	r0, r0, #23
 80011e4:	f000 fd6e 	bl	8001cc4 <SDK_GPIO_WritePin>
 80011e8:	bd10      	pop	{r4, pc}
 80011ea:	46c0      	nop			@ (mov r8, r8)

080011ec <enableCharging>:
 80011ec:	20a0      	movs	r0, #160	@ 0xa0
 80011ee:	b510      	push	{r4, lr}
 80011f0:	2200      	movs	r2, #0
 80011f2:	2110      	movs	r1, #16
 80011f4:	05c0      	lsls	r0, r0, #23
 80011f6:	f000 fd65 	bl	8001cc4 <SDK_GPIO_WritePin>
 80011fa:	bd10      	pop	{r4, pc}

080011fc <disableCharging>:
 80011fc:	20a0      	movs	r0, #160	@ 0xa0
 80011fe:	b510      	push	{r4, lr}
 8001200:	2201      	movs	r2, #1
 8001202:	2110      	movs	r1, #16
 8001204:	05c0      	lsls	r0, r0, #23
 8001206:	f000 fd5d 	bl	8001cc4 <SDK_GPIO_WritePin>
 800120a:	bd10      	pop	{r4, pc}

0800120c <enableUpsLong>:
 800120c:	20a0      	movs	r0, #160	@ 0xa0
 800120e:	b510      	push	{r4, lr}
 8001210:	2201      	movs	r2, #1
 8001212:	2180      	movs	r1, #128	@ 0x80
 8001214:	05c0      	lsls	r0, r0, #23
 8001216:	f000 fd55 	bl	8001cc4 <SDK_GPIO_WritePin>
 800121a:	bd10      	pop	{r4, pc}

0800121c <disableUpsLong>:
 800121c:	20a0      	movs	r0, #160	@ 0xa0
 800121e:	b510      	push	{r4, lr}
 8001220:	2200      	movs	r2, #0
 8001222:	2180      	movs	r1, #128	@ 0x80
 8001224:	05c0      	lsls	r0, r0, #23
 8001226:	f000 fd4d 	bl	8001cc4 <SDK_GPIO_WritePin>
 800122a:	bd10      	pop	{r4, pc}

0800122c <handleButtonPress>:
 800122c:	b5f0      	push	{r4, r5, r6, r7, lr}
 800122e:	46c6      	mov	lr, r8
 8001230:	b500      	push	{lr}
 8001232:	b082      	sub	sp, #8
 8001234:	f000 f992 	bl	800155c <isButtonPressed>
 8001238:	2800      	cmp	r0, #0
 800123a:	d16a      	bne.n	8001312 <handleButtonPress+0xe6>
 800123c:	4c46      	ldr	r4, [pc, #280]	@ (8001358 <handleButtonPress+0x12c>)
 800123e:	f000 f999 	bl	8001574 <isButtonReleased>
 8001242:	2800      	cmp	r0, #0
 8001244:	d160      	bne.n	8001308 <handleButtonPress+0xdc>
 8001246:	6823      	ldr	r3, [r4, #0]
 8001248:	2b00      	cmp	r3, #0
 800124a:	d003      	beq.n	8001254 <handleButtonPress+0x28>
 800124c:	4d43      	ldr	r5, [pc, #268]	@ (800135c <handleButtonPress+0x130>)
 800124e:	682a      	ldr	r2, [r5, #0]
 8001250:	2a00      	cmp	r2, #0
 8001252:	d107      	bne.n	8001264 <handleButtonPress+0x38>
 8001254:	4b42      	ldr	r3, [pc, #264]	@ (8001360 <handleButtonPress+0x134>)
 8001256:	781b      	ldrb	r3, [r3, #0]
 8001258:	2b04      	cmp	r3, #4
 800125a:	d030      	beq.n	80012be <handleButtonPress+0x92>
 800125c:	b002      	add	sp, #8
 800125e:	bc80      	pop	{r7}
 8001260:	46b8      	mov	r8, r7
 8001262:	bdf0      	pop	{r4, r5, r6, r7, pc}
 8001264:	1ad2      	subs	r2, r2, r3
 8001266:	4b3f      	ldr	r3, [pc, #252]	@ (8001364 <handleButtonPress+0x138>)
 8001268:	429a      	cmp	r2, r3
 800126a:	d957      	bls.n	800131c <handleButtonPress+0xf0>
 800126c:	4b3c      	ldr	r3, [pc, #240]	@ (8001360 <handleButtonPress+0x134>)
 800126e:	4698      	mov	r8, r3
 8001270:	781b      	ldrb	r3, [r3, #0]
 8001272:	2b04      	cmp	r3, #4
 8001274:	d05e      	beq.n	8001334 <handleButtonPress+0x108>
 8001276:	466b      	mov	r3, sp
 8001278:	1dd9      	adds	r1, r3, #7
 800127a:	2302      	movs	r3, #2
 800127c:	2201      	movs	r2, #1
 800127e:	700b      	strb	r3, [r1, #0]
 8001280:	200a      	movs	r0, #10
 8001282:	f7ff fbff 	bl	8000a84 <reg_write>
 8001286:	f7ff ff15 	bl	80010b4 <resetGlobalState>
 800128a:	2040      	movs	r0, #64	@ 0x40
 800128c:	f7ff fefe 	bl	800108c <setGlobalState>
 8001290:	2304      	movs	r3, #4
 8001292:	4f35      	ldr	r7, [pc, #212]	@ (8001368 <handleButtonPress+0x13c>)
 8001294:	4e35      	ldr	r6, [pc, #212]	@ (800136c <handleButtonPress+0x140>)
 8001296:	703b      	strb	r3, [r7, #0]
 8001298:	3306      	adds	r3, #6
 800129a:	7033      	strb	r3, [r6, #0]
 800129c:	f000 fdec 	bl	8001e78 <GetmsTicks>
 80012a0:	4b33      	ldr	r3, [pc, #204]	@ (8001370 <handleButtonPress+0x144>)
 80012a2:	6018      	str	r0, [r3, #0]
 80012a4:	2201      	movs	r2, #1
 80012a6:	0031      	movs	r1, r6
 80012a8:	2047      	movs	r0, #71	@ 0x47
 80012aa:	f7ff fbeb 	bl	8000a84 <reg_write>
 80012ae:	2300      	movs	r3, #0
 80012b0:	4642      	mov	r2, r8
 80012b2:	6023      	str	r3, [r4, #0]
 80012b4:	602b      	str	r3, [r5, #0]
 80012b6:	783b      	ldrb	r3, [r7, #0]
 80012b8:	7013      	strb	r3, [r2, #0]
 80012ba:	2b04      	cmp	r3, #4
 80012bc:	d1ce      	bne.n	800125c <handleButtonPress+0x30>
 80012be:	4c2c      	ldr	r4, [pc, #176]	@ (8001370 <handleButtonPress+0x144>)
 80012c0:	6823      	ldr	r3, [r4, #0]
 80012c2:	2b00      	cmp	r3, #0
 80012c4:	d0ca      	beq.n	800125c <handleButtonPress+0x30>
 80012c6:	f000 fdd7 	bl	8001e78 <GetmsTicks>
 80012ca:	6823      	ldr	r3, [r4, #0]
 80012cc:	1ac0      	subs	r0, r0, r3
 80012ce:	4b29      	ldr	r3, [pc, #164]	@ (8001374 <handleButtonPress+0x148>)
 80012d0:	4298      	cmp	r0, r3
 80012d2:	d9c3      	bls.n	800125c <handleButtonPress+0x30>
 80012d4:	466b      	mov	r3, sp
 80012d6:	2600      	movs	r6, #0
 80012d8:	1ddd      	adds	r5, r3, #7
 80012da:	71de      	strb	r6, [r3, #7]
 80012dc:	2201      	movs	r2, #1
 80012de:	0029      	movs	r1, r5
 80012e0:	2010      	movs	r0, #16
 80012e2:	f7ff fbcf 	bl	8000a84 <reg_write>
 80012e6:	2201      	movs	r2, #1
 80012e8:	0029      	movs	r1, r5
 80012ea:	200a      	movs	r0, #10
 80012ec:	f7ff fbca 	bl	8000a84 <reg_write>
 80012f0:	f7ff ff5e 	bl	80011b0 <disableGlobalEnableRpi>
 80012f4:	f7ff ff48 	bl	8001188 <disableMainPower>
 80012f8:	f7ff ff6e 	bl	80011d8 <disableUpsBoost>
 80012fc:	f7ff ff8e 	bl	800121c <disableUpsLong>
 8001300:	f7ff ff42 	bl	8001188 <disableMainPower>
 8001304:	6026      	str	r6, [r4, #0]
 8001306:	e7a9      	b.n	800125c <handleButtonPress+0x30>
 8001308:	f000 fdb6 	bl	8001e78 <GetmsTicks>
 800130c:	4b13      	ldr	r3, [pc, #76]	@ (800135c <handleButtonPress+0x130>)
 800130e:	6018      	str	r0, [r3, #0]
 8001310:	e799      	b.n	8001246 <handleButtonPress+0x1a>
 8001312:	f000 fdb1 	bl	8001e78 <GetmsTicks>
 8001316:	4c10      	ldr	r4, [pc, #64]	@ (8001358 <handleButtonPress+0x12c>)
 8001318:	6020      	str	r0, [r4, #0]
 800131a:	e790      	b.n	800123e <handleButtonPress+0x12>
 800131c:	4e13      	ldr	r6, [pc, #76]	@ (800136c <handleButtonPress+0x140>)
 800131e:	7833      	ldrb	r3, [r6, #0]
 8001320:	3301      	adds	r3, #1
 8001322:	b2db      	uxtb	r3, r3
 8001324:	2b02      	cmp	r3, #2
 8001326:	d100      	bne.n	800132a <handleButtonPress+0xfe>
 8001328:	2300      	movs	r3, #0
 800132a:	7033      	strb	r3, [r6, #0]
 800132c:	4b0c      	ldr	r3, [pc, #48]	@ (8001360 <handleButtonPress+0x134>)
 800132e:	4f0e      	ldr	r7, [pc, #56]	@ (8001368 <handleButtonPress+0x13c>)
 8001330:	4698      	mov	r8, r3
 8001332:	e7b7      	b.n	80012a4 <handleButtonPress+0x78>
 8001334:	4f0c      	ldr	r7, [pc, #48]	@ (8001368 <handleButtonPress+0x13c>)
 8001336:	783b      	ldrb	r3, [r7, #0]
 8001338:	2b04      	cmp	r3, #4
 800133a:	d009      	beq.n	8001350 <handleButtonPress+0x124>
 800133c:	f7ff feba 	bl	80010b4 <resetGlobalState>
 8001340:	2020      	movs	r0, #32
 8001342:	f7ff fea3 	bl	800108c <setGlobalState>
 8001346:	2300      	movs	r3, #0
 8001348:	4e08      	ldr	r6, [pc, #32]	@ (800136c <handleButtonPress+0x140>)
 800134a:	703b      	strb	r3, [r7, #0]
 800134c:	7033      	strb	r3, [r6, #0]
 800134e:	e7a9      	b.n	80012a4 <handleButtonPress+0x78>
 8001350:	f000 f91c 	bl	800158c <keepButtonReleased>
 8001354:	e7f2      	b.n	800133c <handleButtonPress+0x110>
 8001356:	46c0      	nop			@ (mov r8, r8)
 8001358:	20000328 	.word	0x20000328
 800135c:	20000324 	.word	0x20000324
 8001360:	2000000d 	.word	0x2000000d
 8001364:	00001388 	.word	0x00001388
 8001368:	2000000c 	.word	0x2000000c
 800136c:	2000032c 	.word	0x2000032c
 8001370:	20000320 	.word	0x20000320
 8001374:	0000752f 	.word	0x0000752f

08001378 <getMainPowerVoltage>:
 8001378:	4b01      	ldr	r3, [pc, #4]	@ (8001380 <getMainPowerVoltage+0x8>)
 800137a:	8858      	ldrh	r0, [r3, #2]
 800137c:	4770      	bx	lr
 800137e:	46c0      	nop			@ (mov r8, r8)
 8001380:	20000330 	.word	0x20000330

08001384 <updateBatteryFsm>:
 8001384:	b570      	push	{r4, r5, r6, lr}
 8001386:	4d22      	ldr	r5, [pc, #136]	@ (8001410 <updateBatteryFsm+0x8c>)
 8001388:	782c      	ldrb	r4, [r5, #0]
 800138a:	2c00      	cmp	r4, #0
 800138c:	d00e      	beq.n	80013ac <updateBatteryFsm+0x28>
 800138e:	2c01      	cmp	r4, #1
 8001390:	d003      	beq.n	800139a <updateBatteryFsm+0x16>
 8001392:	4b20      	ldr	r3, [pc, #128]	@ (8001414 <updateBatteryFsm+0x90>)
 8001394:	781b      	ldrb	r3, [r3, #0]
 8001396:	702b      	strb	r3, [r5, #0]
 8001398:	bd70      	pop	{r4, r5, r6, pc}
 800139a:	f7ff ffed 	bl	8001378 <getMainPowerVoltage>
 800139e:	4b1e      	ldr	r3, [pc, #120]	@ (8001418 <updateBatteryFsm+0x94>)
 80013a0:	4298      	cmp	r0, r3
 80013a2:	d91d      	bls.n	80013e0 <updateBatteryFsm+0x5c>
 80013a4:	4b1b      	ldr	r3, [pc, #108]	@ (8001414 <updateBatteryFsm+0x90>)
 80013a6:	701c      	strb	r4, [r3, #0]
 80013a8:	2301      	movs	r3, #1
 80013aa:	e7f4      	b.n	8001396 <updateBatteryFsm+0x12>
 80013ac:	f7ff ffe4 	bl	8001378 <getMainPowerVoltage>
 80013b0:	4b1a      	ldr	r3, [pc, #104]	@ (800141c <updateBatteryFsm+0x98>)
 80013b2:	4298      	cmp	r0, r3
 80013b4:	d90c      	bls.n	80013d0 <updateBatteryFsm+0x4c>
 80013b6:	f000 fd5f 	bl	8001e78 <GetmsTicks>
 80013ba:	4e19      	ldr	r6, [pc, #100]	@ (8001420 <updateBatteryFsm+0x9c>)
 80013bc:	6833      	ldr	r3, [r6, #0]
 80013be:	1ac0      	subs	r0, r0, r3
 80013c0:	4b18      	ldr	r3, [pc, #96]	@ (8001424 <updateBatteryFsm+0xa0>)
 80013c2:	881b      	ldrh	r3, [r3, #0]
 80013c4:	4298      	cmp	r0, r3
 80013c6:	d215      	bcs.n	80013f4 <updateBatteryFsm+0x70>
 80013c8:	4b12      	ldr	r3, [pc, #72]	@ (8001414 <updateBatteryFsm+0x90>)
 80013ca:	701c      	strb	r4, [r3, #0]
 80013cc:	2300      	movs	r3, #0
 80013ce:	e7e2      	b.n	8001396 <updateBatteryFsm+0x12>
 80013d0:	4e10      	ldr	r6, [pc, #64]	@ (8001414 <updateBatteryFsm+0x90>)
 80013d2:	7034      	strb	r4, [r6, #0]
 80013d4:	f000 fd50 	bl	8001e78 <GetmsTicks>
 80013d8:	4b11      	ldr	r3, [pc, #68]	@ (8001420 <updateBatteryFsm+0x9c>)
 80013da:	6018      	str	r0, [r3, #0]
 80013dc:	7833      	ldrb	r3, [r6, #0]
 80013de:	e7da      	b.n	8001396 <updateBatteryFsm+0x12>
 80013e0:	f7ff ff0c 	bl	80011fc <disableCharging>
 80013e4:	2004      	movs	r0, #4
 80013e6:	f7ff fe7d 	bl	80010e4 <clearGlobalState>
 80013ea:	2200      	movs	r2, #0
 80013ec:	4b09      	ldr	r3, [pc, #36]	@ (8001414 <updateBatteryFsm+0x90>)
 80013ee:	701a      	strb	r2, [r3, #0]
 80013f0:	2300      	movs	r3, #0
 80013f2:	e7d0      	b.n	8001396 <updateBatteryFsm+0x12>
 80013f4:	f7ff fefa 	bl	80011ec <enableCharging>
 80013f8:	2004      	movs	r0, #4
 80013fa:	f7ff fe47 	bl	800108c <setGlobalState>
 80013fe:	f000 fd3b 	bl	8001e78 <GetmsTicks>
 8001402:	2201      	movs	r2, #1
 8001404:	4b03      	ldr	r3, [pc, #12]	@ (8001414 <updateBatteryFsm+0x90>)
 8001406:	6030      	str	r0, [r6, #0]
 8001408:	701a      	strb	r2, [r3, #0]
 800140a:	2301      	movs	r3, #1
 800140c:	e7c3      	b.n	8001396 <updateBatteryFsm+0x12>
 800140e:	46c0      	nop			@ (mov r8, r8)
 8001410:	2000032e 	.word	0x2000032e
 8001414:	2000032d 	.word	0x2000032d
 8001418:	0000270f 	.word	0x0000270f
 800141c:	00002af7 	.word	0x00002af7
 8001420:	2000031c 	.word	0x2000031c
 8001424:	20000008 	.word	0x20000008

08001428 <updatePowerFsm>:
 8001428:	b570      	push	{r4, r5, r6, lr}
 800142a:	f7ff fe7f 	bl	800112c <updateADCreadings>
 800142e:	f7ff ffa9 	bl	8001384 <updateBatteryFsm>
 8001432:	f7ff fefb 	bl	800122c <handleButtonPress>
 8001436:	4d3f      	ldr	r5, [pc, #252]	@ (8001534 <updatePowerFsm+0x10c>)
 8001438:	782c      	ldrb	r4, [r5, #0]
 800143a:	2c02      	cmp	r4, #2
 800143c:	d023      	beq.n	8001486 <updatePowerFsm+0x5e>
 800143e:	d80f      	bhi.n	8001460 <updatePowerFsm+0x38>
 8001440:	2c00      	cmp	r4, #0
 8001442:	d029      	beq.n	8001498 <updatePowerFsm+0x70>
 8001444:	f7ff ff98 	bl	8001378 <getMainPowerVoltage>
 8001448:	4b3b      	ldr	r3, [pc, #236]	@ (8001538 <updatePowerFsm+0x110>)
 800144a:	4298      	cmp	r0, r3
 800144c:	d839      	bhi.n	80014c2 <updatePowerFsm+0x9a>
 800144e:	2301      	movs	r3, #1
 8001450:	4c3a      	ldr	r4, [pc, #232]	@ (800153c <updatePowerFsm+0x114>)
 8001452:	7023      	strb	r3, [r4, #0]
 8001454:	f000 fd10 	bl	8001e78 <GetmsTicks>
 8001458:	4b39      	ldr	r3, [pc, #228]	@ (8001540 <updatePowerFsm+0x118>)
 800145a:	7824      	ldrb	r4, [r4, #0]
 800145c:	6018      	str	r0, [r3, #0]
 800145e:	e019      	b.n	8001494 <updatePowerFsm+0x6c>
 8001460:	2c03      	cmp	r4, #3
 8001462:	d115      	bne.n	8001490 <updatePowerFsm+0x68>
 8001464:	f7ff ff88 	bl	8001378 <getMainPowerVoltage>
 8001468:	4b33      	ldr	r3, [pc, #204]	@ (8001538 <updatePowerFsm+0x110>)
 800146a:	4298      	cmp	r0, r3
 800146c:	d921      	bls.n	80014b2 <updatePowerFsm+0x8a>
 800146e:	f000 fd03 	bl	8001e78 <GetmsTicks>
 8001472:	4e33      	ldr	r6, [pc, #204]	@ (8001540 <updatePowerFsm+0x118>)
 8001474:	6833      	ldr	r3, [r6, #0]
 8001476:	1ac0      	subs	r0, r0, r3
 8001478:	4b32      	ldr	r3, [pc, #200]	@ (8001544 <updatePowerFsm+0x11c>)
 800147a:	881b      	ldrh	r3, [r3, #0]
 800147c:	4298      	cmp	r0, r3
 800147e:	d24a      	bcs.n	8001516 <updatePowerFsm+0xee>
 8001480:	4b2e      	ldr	r3, [pc, #184]	@ (800153c <updatePowerFsm+0x114>)
 8001482:	701c      	strb	r4, [r3, #0]
 8001484:	e006      	b.n	8001494 <updatePowerFsm+0x6c>
 8001486:	f7ff ff77 	bl	8001378 <getMainPowerVoltage>
 800148a:	4b2f      	ldr	r3, [pc, #188]	@ (8001548 <updatePowerFsm+0x120>)
 800148c:	4298      	cmp	r0, r3
 800148e:	d932      	bls.n	80014f6 <updatePowerFsm+0xce>
 8001490:	4b2a      	ldr	r3, [pc, #168]	@ (800153c <updatePowerFsm+0x114>)
 8001492:	781c      	ldrb	r4, [r3, #0]
 8001494:	702c      	strb	r4, [r5, #0]
 8001496:	bd70      	pop	{r4, r5, r6, pc}
 8001498:	f000 fcee 	bl	8001e78 <GetmsTicks>
 800149c:	4b28      	ldr	r3, [pc, #160]	@ (8001540 <updatePowerFsm+0x118>)
 800149e:	6018      	str	r0, [r3, #0]
 80014a0:	f000 f868 	bl	8001574 <isButtonReleased>
 80014a4:	2800      	cmp	r0, #0
 80014a6:	d0f3      	beq.n	8001490 <updatePowerFsm+0x68>
 80014a8:	2201      	movs	r2, #1
 80014aa:	4b24      	ldr	r3, [pc, #144]	@ (800153c <updatePowerFsm+0x114>)
 80014ac:	2401      	movs	r4, #1
 80014ae:	701a      	strb	r2, [r3, #0]
 80014b0:	e7f0      	b.n	8001494 <updatePowerFsm+0x6c>
 80014b2:	4e22      	ldr	r6, [pc, #136]	@ (800153c <updatePowerFsm+0x114>)
 80014b4:	7034      	strb	r4, [r6, #0]
 80014b6:	f000 fcdf 	bl	8001e78 <GetmsTicks>
 80014ba:	4b21      	ldr	r3, [pc, #132]	@ (8001540 <updatePowerFsm+0x118>)
 80014bc:	7834      	ldrb	r4, [r6, #0]
 80014be:	6018      	str	r0, [r3, #0]
 80014c0:	e7e8      	b.n	8001494 <updatePowerFsm+0x6c>
 80014c2:	f000 fcd9 	bl	8001e78 <GetmsTicks>
 80014c6:	4c1e      	ldr	r4, [pc, #120]	@ (8001540 <updatePowerFsm+0x118>)
 80014c8:	6823      	ldr	r3, [r4, #0]
 80014ca:	1ac0      	subs	r0, r0, r3
 80014cc:	4b1d      	ldr	r3, [pc, #116]	@ (8001544 <updatePowerFsm+0x11c>)
 80014ce:	881b      	ldrh	r3, [r3, #0]
 80014d0:	4298      	cmp	r0, r3
 80014d2:	d3e9      	bcc.n	80014a8 <updatePowerFsm+0x80>
 80014d4:	f7ff fe4e 	bl	8001174 <enableMainPower>
 80014d8:	f7ff fe60 	bl	800119c <enableGlobalEnableRpi>
 80014dc:	f7ff fe72 	bl	80011c4 <enableUpsBoost>
 80014e0:	f000 fcca 	bl	8001e78 <GetmsTicks>
 80014e4:	2302      	movs	r3, #2
 80014e6:	6020      	str	r0, [r4, #0]
 80014e8:	4c14      	ldr	r4, [pc, #80]	@ (800153c <updatePowerFsm+0x114>)
 80014ea:	2020      	movs	r0, #32
 80014ec:	7023      	strb	r3, [r4, #0]
 80014ee:	f7ff fdf9 	bl	80010e4 <clearGlobalState>
 80014f2:	7824      	ldrb	r4, [r4, #0]
 80014f4:	e7ce      	b.n	8001494 <updatePowerFsm+0x6c>
 80014f6:	f7ff fe47 	bl	8001188 <disableMainPower>
 80014fa:	f7ff fe87 	bl	800120c <enableUpsLong>
 80014fe:	f000 fcbb 	bl	8001e78 <GetmsTicks>
 8001502:	4b0f      	ldr	r3, [pc, #60]	@ (8001540 <updatePowerFsm+0x118>)
 8001504:	4c0d      	ldr	r4, [pc, #52]	@ (800153c <updatePowerFsm+0x114>)
 8001506:	6018      	str	r0, [r3, #0]
 8001508:	2303      	movs	r3, #3
 800150a:	2003      	movs	r0, #3
 800150c:	7023      	strb	r3, [r4, #0]
 800150e:	f7ff fdbd 	bl	800108c <setGlobalState>
 8001512:	7824      	ldrb	r4, [r4, #0]
 8001514:	e7be      	b.n	8001494 <updatePowerFsm+0x6c>
 8001516:	f7ff fe81 	bl	800121c <disableUpsLong>
 800151a:	f7ff fe2b 	bl	8001174 <enableMainPower>
 800151e:	f000 fcab 	bl	8001e78 <GetmsTicks>
 8001522:	2302      	movs	r3, #2
 8001524:	4c05      	ldr	r4, [pc, #20]	@ (800153c <updatePowerFsm+0x114>)
 8001526:	6030      	str	r0, [r6, #0]
 8001528:	2003      	movs	r0, #3
 800152a:	7023      	strb	r3, [r4, #0]
 800152c:	f7ff fdda 	bl	80010e4 <clearGlobalState>
 8001530:	7824      	ldrb	r4, [r4, #0]
 8001532:	e7af      	b.n	8001494 <updatePowerFsm+0x6c>
 8001534:	2000000d 	.word	0x2000000d
 8001538:	00002af7 	.word	0x00002af7
 800153c:	2000000c 	.word	0x2000000c
 8001540:	20000318 	.word	0x20000318
 8001544:	2000000a 	.word	0x2000000a
 8001548:	0000270f 	.word	0x0000270f

0800154c <NMI_Handler>:
 800154c:	e7fe      	b.n	800154c <NMI_Handler>
 800154e:	46c0      	nop			@ (mov r8, r8)

08001550 <HardFault_Handler>:
 8001550:	e7fe      	b.n	8001550 <HardFault_Handler>
 8001552:	46c0      	nop			@ (mov r8, r8)

08001554 <SVC_Handler>:
 8001554:	4770      	bx	lr
 8001556:	46c0      	nop			@ (mov r8, r8)

08001558 <PendSV_Handler>:
 8001558:	4770      	bx	lr
 800155a:	46c0      	nop			@ (mov r8, r8)

0800155c <isButtonPressed>:
 800155c:	4a04      	ldr	r2, [pc, #16]	@ (8001570 <isButtonPressed+0x14>)
 800155e:	7813      	ldrb	r3, [r2, #0]
 8001560:	b2d8      	uxtb	r0, r3
 8001562:	2b01      	cmp	r3, #1
 8001564:	d001      	beq.n	800156a <isButtonPressed+0xe>
 8001566:	2000      	movs	r0, #0
 8001568:	4770      	bx	lr
 800156a:	3301      	adds	r3, #1
 800156c:	7013      	strb	r3, [r2, #0]
 800156e:	e7fb      	b.n	8001568 <isButtonPressed+0xc>
 8001570:	2000000e 	.word	0x2000000e

08001574 <isButtonReleased>:
 8001574:	4b04      	ldr	r3, [pc, #16]	@ (8001588 <isButtonReleased+0x14>)
 8001576:	2000      	movs	r0, #0
 8001578:	781a      	ldrb	r2, [r3, #0]
 800157a:	2a00      	cmp	r2, #0
 800157c:	d102      	bne.n	8001584 <isButtonReleased+0x10>
 800157e:	3202      	adds	r2, #2
 8001580:	701a      	strb	r2, [r3, #0]
 8001582:	3001      	adds	r0, #1
 8001584:	4770      	bx	lr
 8001586:	46c0      	nop			@ (mov r8, r8)
 8001588:	2000000e 	.word	0x2000000e

0800158c <keepButtonReleased>:
 800158c:	2200      	movs	r2, #0
 800158e:	4b01      	ldr	r3, [pc, #4]	@ (8001594 <keepButtonReleased+0x8>)
 8001590:	701a      	strb	r2, [r3, #0]
 8001592:	4770      	bx	lr
 8001594:	2000000e 	.word	0x2000000e

08001598 <EXTI4_15_IRQHandler>:
 8001598:	b510      	push	{r4, lr}
 800159a:	f000 fc6d 	bl	8001e78 <GetmsTicks>
 800159e:	2220      	movs	r2, #32
 80015a0:	4b11      	ldr	r3, [pc, #68]	@ (80015e8 <EXTI4_15_IRQHandler+0x50>)
 80015a2:	6919      	ldr	r1, [r3, #16]
 80015a4:	420a      	tst	r2, r1
 80015a6:	d105      	bne.n	80015b4 <EXTI4_15_IRQHandler+0x1c>
 80015a8:	2220      	movs	r2, #32
 80015aa:	4b0f      	ldr	r3, [pc, #60]	@ (80015e8 <EXTI4_15_IRQHandler+0x50>)
 80015ac:	68d9      	ldr	r1, [r3, #12]
 80015ae:	420a      	tst	r2, r1
 80015b0:	d10f      	bne.n	80015d2 <EXTI4_15_IRQHandler+0x3a>
 80015b2:	bd10      	pop	{r4, pc}
 80015b4:	611a      	str	r2, [r3, #16]
 80015b6:	4a0d      	ldr	r2, [pc, #52]	@ (80015ec <EXTI4_15_IRQHandler+0x54>)
 80015b8:	6813      	ldr	r3, [r2, #0]
 80015ba:	1ac3      	subs	r3, r0, r3
 80015bc:	2b19      	cmp	r3, #25
 80015be:	d9f3      	bls.n	80015a8 <EXTI4_15_IRQHandler+0x10>
 80015c0:	2100      	movs	r1, #0
 80015c2:	4b0b      	ldr	r3, [pc, #44]	@ (80015f0 <EXTI4_15_IRQHandler+0x58>)
 80015c4:	7019      	strb	r1, [r3, #0]
 80015c6:	6010      	str	r0, [r2, #0]
 80015c8:	2220      	movs	r2, #32
 80015ca:	4b07      	ldr	r3, [pc, #28]	@ (80015e8 <EXTI4_15_IRQHandler+0x50>)
 80015cc:	68d9      	ldr	r1, [r3, #12]
 80015ce:	420a      	tst	r2, r1
 80015d0:	d0ef      	beq.n	80015b2 <EXTI4_15_IRQHandler+0x1a>
 80015d2:	60da      	str	r2, [r3, #12]
 80015d4:	4a05      	ldr	r2, [pc, #20]	@ (80015ec <EXTI4_15_IRQHandler+0x54>)
 80015d6:	6813      	ldr	r3, [r2, #0]
 80015d8:	1ac3      	subs	r3, r0, r3
 80015da:	2b19      	cmp	r3, #25
 80015dc:	d9e9      	bls.n	80015b2 <EXTI4_15_IRQHandler+0x1a>
 80015de:	2101      	movs	r1, #1
 80015e0:	4b03      	ldr	r3, [pc, #12]	@ (80015f0 <EXTI4_15_IRQHandler+0x58>)
 80015e2:	7019      	strb	r1, [r3, #0]
 80015e4:	6010      	str	r0, [r2, #0]
 80015e6:	e7e4      	b.n	80015b2 <EXTI4_15_IRQHandler+0x1a>
 80015e8:	40021800 	.word	0x40021800
 80015ec:	20000338 	.word	0x20000338
 80015f0:	2000000e 	.word	0x2000000e

080015f4 <GenerateColorCommand>:
 80015f4:	021b      	lsls	r3, r3, #8
 80015f6:	4313      	orrs	r3, r2
 80015f8:	22f8      	movs	r2, #248	@ 0xf8
 80015fa:	b510      	push	{r4, lr}
 80015fc:	ac02      	add	r4, sp, #8
 80015fe:	7824      	ldrb	r4, [r4, #0]
 8001600:	0740      	lsls	r0, r0, #29
 8001602:	0424      	lsls	r4, r4, #16
 8001604:	4323      	orrs	r3, r4
 8001606:	0552      	lsls	r2, r2, #21
 8001608:	0609      	lsls	r1, r1, #24
 800160a:	4303      	orrs	r3, r0
 800160c:	4011      	ands	r1, r2
 800160e:	430b      	orrs	r3, r1
 8001610:	ba18      	rev	r0, r3
 8001612:	bd10      	pop	{r4, pc}

08001614 <SendColorCommandArray>:
 8001614:	2301      	movs	r3, #1
 8001616:	b570      	push	{r4, r5, r6, lr}
 8001618:	4e0b      	ldr	r6, [pc, #44]	@ (8001648 <SendColorCommandArray+0x34>)
 800161a:	b082      	sub	sp, #8
 800161c:	425b      	negs	r3, r3
 800161e:	0035      	movs	r5, r6
 8001620:	9301      	str	r3, [sp, #4]
 8001622:	2300      	movs	r3, #0
 8001624:	000c      	movs	r4, r1
 8001626:	c508      	stmia	r5!, {r3}
 8001628:	000a      	movs	r2, r1
 800162a:	0001      	movs	r1, r0
 800162c:	0028      	movs	r0, r5
 800162e:	f7fe fe0b 	bl	8000248 <memcpy>
 8001632:	2204      	movs	r2, #4
 8001634:	a901      	add	r1, sp, #4
 8001636:	1960      	adds	r0, r4, r5
 8001638:	f7fe fe06 	bl	8000248 <memcpy>
 800163c:	210c      	movs	r1, #12
 800163e:	0030      	movs	r0, r6
 8001640:	f000 fdde 	bl	8002200 <SDK_SPI_Transmit_IT>
 8001644:	b002      	add	sp, #8
 8001646:	bd70      	pop	{r4, r5, r6, pc}
 8001648:	2000033c 	.word	0x2000033c

0800164c <LL_RCC_GetSystemClocksFreq>:
 800164c:	2338      	movs	r3, #56	@ 0x38
 800164e:	4a1b      	ldr	r2, [pc, #108]	@ (80016bc <LL_RCC_GetSystemClocksFreq+0x70>)
 8001650:	b530      	push	{r4, r5, lr}
 8001652:	6891      	ldr	r1, [r2, #8]
 8001654:	400b      	ands	r3, r1
 8001656:	2b18      	cmp	r3, #24
 8001658:	d027      	beq.n	80016aa <LL_RCC_GetSystemClocksFreq+0x5e>
 800165a:	d805      	bhi.n	8001668 <LL_RCC_GetSystemClocksFreq+0x1c>
 800165c:	2b00      	cmp	r3, #0
 800165e:	d027      	beq.n	80016b0 <LL_RCC_GetSystemClocksFreq+0x64>
 8001660:	2b08      	cmp	r3, #8
 8001662:	d106      	bne.n	8001672 <LL_RCC_GetSystemClocksFreq+0x26>
 8001664:	4b16      	ldr	r3, [pc, #88]	@ (80016c0 <LL_RCC_GetSystemClocksFreq+0x74>)
 8001666:	e00a      	b.n	800167e <LL_RCC_GetSystemClocksFreq+0x32>
 8001668:	2b20      	cmp	r3, #32
 800166a:	d102      	bne.n	8001672 <LL_RCC_GetSystemClocksFreq+0x26>
 800166c:	2380      	movs	r3, #128	@ 0x80
 800166e:	021b      	lsls	r3, r3, #8
 8001670:	e005      	b.n	800167e <LL_RCC_GetSystemClocksFreq+0x32>
 8001672:	4b12      	ldr	r3, [pc, #72]	@ (80016bc <LL_RCC_GetSystemClocksFreq+0x70>)
 8001674:	681a      	ldr	r2, [r3, #0]
 8001676:	4b12      	ldr	r3, [pc, #72]	@ (80016c0 <LL_RCC_GetSystemClocksFreq+0x74>)
 8001678:	0492      	lsls	r2, r2, #18
 800167a:	0f52      	lsrs	r2, r2, #29
 800167c:	40d3      	lsrs	r3, r2
 800167e:	241f      	movs	r4, #31
 8001680:	4d0e      	ldr	r5, [pc, #56]	@ (80016bc <LL_RCC_GetSystemClocksFreq+0x70>)
 8001682:	6003      	str	r3, [r0, #0]
 8001684:	68aa      	ldr	r2, [r5, #8]
 8001686:	490f      	ldr	r1, [pc, #60]	@ (80016c4 <LL_RCC_GetSystemClocksFreq+0x78>)
 8001688:	0512      	lsls	r2, r2, #20
 800168a:	0f12      	lsrs	r2, r2, #28
 800168c:	0092      	lsls	r2, r2, #2
 800168e:	5852      	ldr	r2, [r2, r1]
 8001690:	490d      	ldr	r1, [pc, #52]	@ (80016c8 <LL_RCC_GetSystemClocksFreq+0x7c>)
 8001692:	4022      	ands	r2, r4
 8001694:	40d3      	lsrs	r3, r2
 8001696:	6043      	str	r3, [r0, #4]
 8001698:	68aa      	ldr	r2, [r5, #8]
 800169a:	0452      	lsls	r2, r2, #17
 800169c:	0f52      	lsrs	r2, r2, #29
 800169e:	0092      	lsls	r2, r2, #2
 80016a0:	5852      	ldr	r2, [r2, r1]
 80016a2:	4022      	ands	r2, r4
 80016a4:	40d3      	lsrs	r3, r2
 80016a6:	6083      	str	r3, [r0, #8]
 80016a8:	bd30      	pop	{r4, r5, pc}
 80016aa:	23fa      	movs	r3, #250	@ 0xfa
 80016ac:	01db      	lsls	r3, r3, #7
 80016ae:	e7e6      	b.n	800167e <LL_RCC_GetSystemClocksFreq+0x32>
 80016b0:	6812      	ldr	r2, [r2, #0]
 80016b2:	4b03      	ldr	r3, [pc, #12]	@ (80016c0 <LL_RCC_GetSystemClocksFreq+0x74>)
 80016b4:	0492      	lsls	r2, r2, #18
 80016b6:	0f52      	lsrs	r2, r2, #29
 80016b8:	40d3      	lsrs	r3, r2
 80016ba:	e7e0      	b.n	800167e <LL_RCC_GetSystemClocksFreq+0x32>
 80016bc:	40021000 	.word	0x40021000
 80016c0:	02dc6c00 	.word	0x02dc6c00
 80016c4:	080026ac 	.word	0x080026ac
 80016c8:	0800268c 	.word	0x0800268c

080016cc <RCC_GetSystemClockFreq>:
 80016cc:	2338      	movs	r3, #56	@ 0x38
 80016ce:	4a10      	ldr	r2, [pc, #64]	@ (8001710 <RCC_GetSystemClockFreq+0x44>)
 80016d0:	6891      	ldr	r1, [r2, #8]
 80016d2:	400b      	ands	r3, r1
 80016d4:	2b18      	cmp	r3, #24
 80016d6:	d012      	beq.n	80016fe <RCC_GetSystemClockFreq+0x32>
 80016d8:	d805      	bhi.n	80016e6 <RCC_GetSystemClockFreq+0x1a>
 80016da:	2b00      	cmp	r3, #0
 80016dc:	d012      	beq.n	8001704 <RCC_GetSystemClockFreq+0x38>
 80016de:	2b08      	cmp	r3, #8
 80016e0:	d106      	bne.n	80016f0 <RCC_GetSystemClockFreq+0x24>
 80016e2:	480c      	ldr	r0, [pc, #48]	@ (8001714 <RCC_GetSystemClockFreq+0x48>)
 80016e4:	e00a      	b.n	80016fc <RCC_GetSystemClockFreq+0x30>
 80016e6:	2b20      	cmp	r3, #32
 80016e8:	d102      	bne.n	80016f0 <RCC_GetSystemClockFreq+0x24>
 80016ea:	2080      	movs	r0, #128	@ 0x80
 80016ec:	0200      	lsls	r0, r0, #8
 80016ee:	e005      	b.n	80016fc <RCC_GetSystemClockFreq+0x30>
 80016f0:	4b07      	ldr	r3, [pc, #28]	@ (8001710 <RCC_GetSystemClockFreq+0x44>)
 80016f2:	4808      	ldr	r0, [pc, #32]	@ (8001714 <RCC_GetSystemClockFreq+0x48>)
 80016f4:	681b      	ldr	r3, [r3, #0]
 80016f6:	049b      	lsls	r3, r3, #18
 80016f8:	0f5b      	lsrs	r3, r3, #29
 80016fa:	40d8      	lsrs	r0, r3
 80016fc:	4770      	bx	lr
 80016fe:	20fa      	movs	r0, #250	@ 0xfa
 8001700:	01c0      	lsls	r0, r0, #7
 8001702:	e7fb      	b.n	80016fc <RCC_GetSystemClockFreq+0x30>
 8001704:	6813      	ldr	r3, [r2, #0]
 8001706:	4803      	ldr	r0, [pc, #12]	@ (8001714 <RCC_GetSystemClockFreq+0x48>)
 8001708:	049b      	lsls	r3, r3, #18
 800170a:	0f5b      	lsrs	r3, r3, #29
 800170c:	40d8      	lsrs	r0, r3
 800170e:	e7f5      	b.n	80016fc <RCC_GetSystemClockFreq+0x30>
 8001710:	40021000 	.word	0x40021000
 8001714:	02dc6c00 	.word	0x02dc6c00

08001718 <LL_RCC_GetUSARTClockFreq>:
 8001718:	0003      	movs	r3, r0
 800171a:	b510      	push	{r4, lr}
 800171c:	2000      	movs	r0, #0
 800171e:	2b03      	cmp	r3, #3
 8001720:	d000      	beq.n	8001724 <LL_RCC_GetUSARTClockFreq+0xc>
 8001722:	bd10      	pop	{r4, pc}
 8001724:	4c1c      	ldr	r4, [pc, #112]	@ (8001798 <LL_RCC_GetUSARTClockFreq+0x80>)
 8001726:	6d62      	ldr	r2, [r4, #84]	@ 0x54
 8001728:	4013      	ands	r3, r2
 800172a:	22c0      	movs	r2, #192	@ 0xc0
 800172c:	0292      	lsls	r2, r2, #10
 800172e:	4313      	orrs	r3, r2
 8001730:	4a1a      	ldr	r2, [pc, #104]	@ (800179c <LL_RCC_GetUSARTClockFreq+0x84>)
 8001732:	4293      	cmp	r3, r2
 8001734:	d00d      	beq.n	8001752 <LL_RCC_GetUSARTClockFreq+0x3a>
 8001736:	4a1a      	ldr	r2, [pc, #104]	@ (80017a0 <LL_RCC_GetUSARTClockFreq+0x88>)
 8001738:	4293      	cmp	r3, r2
 800173a:	d005      	beq.n	8001748 <LL_RCC_GetUSARTClockFreq+0x30>
 800173c:	4a19      	ldr	r2, [pc, #100]	@ (80017a4 <LL_RCC_GetUSARTClockFreq+0x8c>)
 800173e:	4293      	cmp	r3, r2
 8001740:	d116      	bne.n	8001770 <LL_RCC_GetUSARTClockFreq+0x58>
 8001742:	f7ff ffc3 	bl	80016cc <RCC_GetSystemClockFreq>
 8001746:	e7ec      	b.n	8001722 <LL_RCC_GetUSARTClockFreq+0xa>
 8001748:	6de0      	ldr	r0, [r4, #92]	@ 0x5c
 800174a:	0780      	lsls	r0, r0, #30
 800174c:	0fc0      	lsrs	r0, r0, #31
 800174e:	03c0      	lsls	r0, r0, #15
 8001750:	e7e7      	b.n	8001722 <LL_RCC_GetUSARTClockFreq+0xa>
 8001752:	6822      	ldr	r2, [r4, #0]
 8001754:	2380      	movs	r3, #128	@ 0x80
 8001756:	0010      	movs	r0, r2
 8001758:	00db      	lsls	r3, r3, #3
 800175a:	4018      	ands	r0, r3
 800175c:	421a      	tst	r2, r3
 800175e:	d0e0      	beq.n	8001722 <LL_RCC_GetUSARTClockFreq+0xa>
 8001760:	6821      	ldr	r1, [r4, #0]
 8001762:	4811      	ldr	r0, [pc, #68]	@ (80017a8 <LL_RCC_GetUSARTClockFreq+0x90>)
 8001764:	0609      	lsls	r1, r1, #24
 8001766:	0f49      	lsrs	r1, r1, #29
 8001768:	3101      	adds	r1, #1
 800176a:	f7fe fdb3 	bl	80002d4 <__udivsi3>
 800176e:	e7d8      	b.n	8001722 <LL_RCC_GetUSARTClockFreq+0xa>
 8001770:	f7ff ffac 	bl	80016cc <RCC_GetSystemClockFreq>
 8001774:	211f      	movs	r1, #31
 8001776:	68a2      	ldr	r2, [r4, #8]
 8001778:	68a3      	ldr	r3, [r4, #8]
 800177a:	0512      	lsls	r2, r2, #20
 800177c:	4c0b      	ldr	r4, [pc, #44]	@ (80017ac <LL_RCC_GetUSARTClockFreq+0x94>)
 800177e:	0f12      	lsrs	r2, r2, #28
 8001780:	0092      	lsls	r2, r2, #2
 8001782:	5912      	ldr	r2, [r2, r4]
 8001784:	045b      	lsls	r3, r3, #17
 8001786:	400a      	ands	r2, r1
 8001788:	40d0      	lsrs	r0, r2
 800178a:	0f5b      	lsrs	r3, r3, #29
 800178c:	4a08      	ldr	r2, [pc, #32]	@ (80017b0 <LL_RCC_GetUSARTClockFreq+0x98>)
 800178e:	009b      	lsls	r3, r3, #2
 8001790:	589b      	ldr	r3, [r3, r2]
 8001792:	400b      	ands	r3, r1
 8001794:	40d8      	lsrs	r0, r3
 8001796:	e7c4      	b.n	8001722 <LL_RCC_GetUSARTClockFreq+0xa>
 8001798:	40021000 	.word	0x40021000
 800179c:	00030002 	.word	0x00030002
 80017a0:	00030003 	.word	0x00030003
 80017a4:	00030001 	.word	0x00030001
 80017a8:	02dc6c00 	.word	0x02dc6c00
 80017ac:	080026ac 	.word	0x080026ac
 80017b0:	0800268c 	.word	0x0800268c

080017b4 <LL_GPIO_Init>:
 80017b4:	b5f0      	push	{r4, r5, r6, r7, lr}
 80017b6:	4645      	mov	r5, r8
 80017b8:	46de      	mov	lr, fp
 80017ba:	4657      	mov	r7, sl
 80017bc:	464e      	mov	r6, r9
 80017be:	2201      	movs	r2, #1
 80017c0:	b5e0      	push	{r5, r6, r7, lr}
 80017c2:	680d      	ldr	r5, [r1, #0]
 80017c4:	2300      	movs	r3, #0
 80017c6:	4694      	mov	ip, r2
 80017c8:	b083      	sub	sp, #12
 80017ca:	2d00      	cmp	r5, #0
 80017cc:	d111      	bne.n	80017f2 <LL_GPIO_Init+0x3e>
 80017ce:	e057      	b.n	8001880 <LL_GPIO_Init+0xcc>
 80017d0:	68c4      	ldr	r4, [r0, #12]
 80017d2:	9a01      	ldr	r2, [sp, #4]
 80017d4:	4014      	ands	r4, r2
 80017d6:	4642      	mov	r2, r8
 80017d8:	4314      	orrs	r4, r2
 80017da:	60c4      	str	r4, [r0, #12]
 80017dc:	465f      	mov	r7, fp
 80017de:	4377      	muls	r7, r6
 80017e0:	6804      	ldr	r4, [r0, #0]
 80017e2:	9a01      	ldr	r2, [sp, #4]
 80017e4:	4022      	ands	r2, r4
 80017e6:	4317      	orrs	r7, r2
 80017e8:	6007      	str	r7, [r0, #0]
 80017ea:	002a      	movs	r2, r5
 80017ec:	3301      	adds	r3, #1
 80017ee:	40da      	lsrs	r2, r3
 80017f0:	d046      	beq.n	8001880 <LL_GPIO_Init+0xcc>
 80017f2:	4662      	mov	r2, ip
 80017f4:	002c      	movs	r4, r5
 80017f6:	409a      	lsls	r2, r3
 80017f8:	4014      	ands	r4, r2
 80017fa:	4215      	tst	r5, r2
 80017fc:	d0f5      	beq.n	80017ea <LL_GPIO_Init+0x36>
 80017fe:	0026      	movs	r6, r4
 8001800:	684a      	ldr	r2, [r1, #4]
 8001802:	4366      	muls	r6, r4
 8001804:	4693      	mov	fp, r2
 8001806:	0072      	lsls	r2, r6, #1
 8001808:	1992      	adds	r2, r2, r6
 800180a:	43d7      	mvns	r7, r2
 800180c:	690a      	ldr	r2, [r1, #16]
 800180e:	9701      	str	r7, [sp, #4]
 8001810:	4372      	muls	r2, r6
 8001812:	4690      	mov	r8, r2
 8001814:	465a      	mov	r2, fp
 8001816:	3a01      	subs	r2, #1
 8001818:	2a01      	cmp	r2, #1
 800181a:	d8d9      	bhi.n	80017d0 <LL_GPIO_Init+0x1c>
 800181c:	6882      	ldr	r2, [r0, #8]
 800181e:	4692      	mov	sl, r2
 8001820:	688a      	ldr	r2, [r1, #8]
 8001822:	4372      	muls	r2, r6
 8001824:	4691      	mov	r9, r2
 8001826:	4652      	mov	r2, sl
 8001828:	403a      	ands	r2, r7
 800182a:	4692      	mov	sl, r2
 800182c:	464a      	mov	r2, r9
 800182e:	4657      	mov	r7, sl
 8001830:	433a      	orrs	r2, r7
 8001832:	6082      	str	r2, [r0, #8]
 8001834:	6842      	ldr	r2, [r0, #4]
 8001836:	43a2      	bics	r2, r4
 8001838:	4691      	mov	r9, r2
 800183a:	68ca      	ldr	r2, [r1, #12]
 800183c:	4362      	muls	r2, r4
 800183e:	4692      	mov	sl, r2
 8001840:	464a      	mov	r2, r9
 8001842:	4657      	mov	r7, sl
 8001844:	433a      	orrs	r2, r7
 8001846:	6042      	str	r2, [r0, #4]
 8001848:	68c2      	ldr	r2, [r0, #12]
 800184a:	9f01      	ldr	r7, [sp, #4]
 800184c:	403a      	ands	r2, r7
 800184e:	4691      	mov	r9, r2
 8001850:	4642      	mov	r2, r8
 8001852:	464f      	mov	r7, r9
 8001854:	433a      	orrs	r2, r7
 8001856:	60c2      	str	r2, [r0, #12]
 8001858:	465a      	mov	r2, fp
 800185a:	2a02      	cmp	r2, #2
 800185c:	d1be      	bne.n	80017dc <LL_GPIO_Init+0x28>
 800185e:	694a      	ldr	r2, [r1, #20]
 8001860:	4690      	mov	r8, r2
 8001862:	2cff      	cmp	r4, #255	@ 0xff
 8001864:	d814      	bhi.n	8001890 <LL_GPIO_Init+0xdc>
 8001866:	0032      	movs	r2, r6
 8001868:	4372      	muls	r2, r6
 800186a:	4691      	mov	r9, r2
 800186c:	464f      	mov	r7, r9
 800186e:	6a04      	ldr	r4, [r0, #32]
 8001870:	0112      	lsls	r2, r2, #4
 8001872:	1bd2      	subs	r2, r2, r7
 8001874:	4394      	bics	r4, r2
 8001876:	4642      	mov	r2, r8
 8001878:	437a      	muls	r2, r7
 800187a:	4314      	orrs	r4, r2
 800187c:	6204      	str	r4, [r0, #32]
 800187e:	e7ad      	b.n	80017dc <LL_GPIO_Init+0x28>
 8001880:	2000      	movs	r0, #0
 8001882:	b003      	add	sp, #12
 8001884:	bcf0      	pop	{r4, r5, r6, r7}
 8001886:	46bb      	mov	fp, r7
 8001888:	46b2      	mov	sl, r6
 800188a:	46a9      	mov	r9, r5
 800188c:	46a0      	mov	r8, r4
 800188e:	bdf0      	pop	{r4, r5, r6, r7, pc}
 8001890:	0a24      	lsrs	r4, r4, #8
 8001892:	4364      	muls	r4, r4
 8001894:	4364      	muls	r4, r4
 8001896:	6a42      	ldr	r2, [r0, #36]	@ 0x24
 8001898:	4691      	mov	r9, r2
 800189a:	0122      	lsls	r2, r4, #4
 800189c:	1b12      	subs	r2, r2, r4
 800189e:	4692      	mov	sl, r2
 80018a0:	464a      	mov	r2, r9
 80018a2:	4657      	mov	r7, sl
 80018a4:	43ba      	bics	r2, r7
 80018a6:	4691      	mov	r9, r2
 80018a8:	4642      	mov	r2, r8
 80018aa:	4362      	muls	r2, r4
 80018ac:	0014      	movs	r4, r2
 80018ae:	464a      	mov	r2, r9
 80018b0:	4314      	orrs	r4, r2
 80018b2:	6244      	str	r4, [r0, #36]	@ 0x24
 80018b4:	e792      	b.n	80017dc <LL_GPIO_Init+0x28>
 80018b6:	46c0      	nop			@ (mov r8, r8)

080018b8 <LL_EXTI_Init>:
 80018b8:	b510      	push	{r4, lr}
 80018ba:	7902      	ldrb	r2, [r0, #4]
 80018bc:	0003      	movs	r3, r0
 80018be:	6801      	ldr	r1, [r0, #0]
 80018c0:	2a00      	cmp	r2, #0
 80018c2:	d003      	beq.n	80018cc <LL_EXTI_Init+0x14>
 80018c4:	2900      	cmp	r1, #0
 80018c6:	d10b      	bne.n	80018e0 <LL_EXTI_Init+0x28>
 80018c8:	2000      	movs	r0, #0
 80018ca:	bd10      	pop	{r4, pc}
 80018cc:	2080      	movs	r0, #128	@ 0x80
 80018ce:	4b26      	ldr	r3, [pc, #152]	@ (8001968 <LL_EXTI_Init+0xb0>)
 80018d0:	581a      	ldr	r2, [r3, r0]
 80018d2:	438a      	bics	r2, r1
 80018d4:	501a      	str	r2, [r3, r0]
 80018d6:	3004      	adds	r0, #4
 80018d8:	581a      	ldr	r2, [r3, r0]
 80018da:	438a      	bics	r2, r1
 80018dc:	501a      	str	r2, [r3, r0]
 80018de:	e7f3      	b.n	80018c8 <LL_EXTI_Init+0x10>
 80018e0:	7942      	ldrb	r2, [r0, #5]
 80018e2:	2a01      	cmp	r2, #1
 80018e4:	d019      	beq.n	800191a <LL_EXTI_Init+0x62>
 80018e6:	2a02      	cmp	r2, #2
 80018e8:	d021      	beq.n	800192e <LL_EXTI_Init+0x76>
 80018ea:	2001      	movs	r0, #1
 80018ec:	2a00      	cmp	r2, #0
 80018ee:	d109      	bne.n	8001904 <LL_EXTI_Init+0x4c>
 80018f0:	2484      	movs	r4, #132	@ 0x84
 80018f2:	4a1d      	ldr	r2, [pc, #116]	@ (8001968 <LL_EXTI_Init+0xb0>)
 80018f4:	5910      	ldr	r0, [r2, r4]
 80018f6:	4388      	bics	r0, r1
 80018f8:	5110      	str	r0, [r2, r4]
 80018fa:	3c04      	subs	r4, #4
 80018fc:	5910      	ldr	r0, [r2, r4]
 80018fe:	4308      	orrs	r0, r1
 8001900:	5110      	str	r0, [r2, r4]
 8001902:	2000      	movs	r0, #0
 8001904:	799b      	ldrb	r3, [r3, #6]
 8001906:	2b00      	cmp	r3, #0
 8001908:	d0df      	beq.n	80018ca <LL_EXTI_Init+0x12>
 800190a:	2b02      	cmp	r3, #2
 800190c:	d024      	beq.n	8001958 <LL_EXTI_Init+0xa0>
 800190e:	2b03      	cmp	r3, #3
 8001910:	d01a      	beq.n	8001948 <LL_EXTI_Init+0x90>
 8001912:	2b01      	cmp	r3, #1
 8001914:	d010      	beq.n	8001938 <LL_EXTI_Init+0x80>
 8001916:	2001      	movs	r0, #1
 8001918:	e7d7      	b.n	80018ca <LL_EXTI_Init+0x12>
 800191a:	2480      	movs	r4, #128	@ 0x80
 800191c:	4a12      	ldr	r2, [pc, #72]	@ (8001968 <LL_EXTI_Init+0xb0>)
 800191e:	5910      	ldr	r0, [r2, r4]
 8001920:	4388      	bics	r0, r1
 8001922:	5110      	str	r0, [r2, r4]
 8001924:	3404      	adds	r4, #4
 8001926:	5910      	ldr	r0, [r2, r4]
 8001928:	4308      	orrs	r0, r1
 800192a:	5110      	str	r0, [r2, r4]
 800192c:	e7e9      	b.n	8001902 <LL_EXTI_Init+0x4a>
 800192e:	2480      	movs	r4, #128	@ 0x80
 8001930:	4a0d      	ldr	r2, [pc, #52]	@ (8001968 <LL_EXTI_Init+0xb0>)
 8001932:	5910      	ldr	r0, [r2, r4]
 8001934:	4308      	orrs	r0, r1
 8001936:	e7f4      	b.n	8001922 <LL_EXTI_Init+0x6a>
 8001938:	4b0b      	ldr	r3, [pc, #44]	@ (8001968 <LL_EXTI_Init+0xb0>)
 800193a:	685a      	ldr	r2, [r3, #4]
 800193c:	438a      	bics	r2, r1
 800193e:	605a      	str	r2, [r3, #4]
 8001940:	681a      	ldr	r2, [r3, #0]
 8001942:	430a      	orrs	r2, r1
 8001944:	601a      	str	r2, [r3, #0]
 8001946:	e7c0      	b.n	80018ca <LL_EXTI_Init+0x12>
 8001948:	4b07      	ldr	r3, [pc, #28]	@ (8001968 <LL_EXTI_Init+0xb0>)
 800194a:	681a      	ldr	r2, [r3, #0]
 800194c:	430a      	orrs	r2, r1
 800194e:	601a      	str	r2, [r3, #0]
 8001950:	685a      	ldr	r2, [r3, #4]
 8001952:	430a      	orrs	r2, r1
 8001954:	605a      	str	r2, [r3, #4]
 8001956:	e7b8      	b.n	80018ca <LL_EXTI_Init+0x12>
 8001958:	4b03      	ldr	r3, [pc, #12]	@ (8001968 <LL_EXTI_Init+0xb0>)
 800195a:	681a      	ldr	r2, [r3, #0]
 800195c:	438a      	bics	r2, r1
 800195e:	601a      	str	r2, [r3, #0]
 8001960:	685a      	ldr	r2, [r3, #4]
 8001962:	430a      	orrs	r2, r1
 8001964:	605a      	str	r2, [r3, #4]
 8001966:	e7b0      	b.n	80018ca <LL_EXTI_Init+0x12>
 8001968:	40021800 	.word	0x40021800

0800196c <LL_Init1msTick>:
 800196c:	21fa      	movs	r1, #250	@ 0xfa
 800196e:	b510      	push	{r4, lr}
 8001970:	0089      	lsls	r1, r1, #2
 8001972:	f7fe fcaf 	bl	80002d4 <__udivsi3>
 8001976:	2200      	movs	r2, #0
 8001978:	4b03      	ldr	r3, [pc, #12]	@ (8001988 <LL_Init1msTick+0x1c>)
 800197a:	3801      	subs	r0, #1
 800197c:	6058      	str	r0, [r3, #4]
 800197e:	609a      	str	r2, [r3, #8]
 8001980:	3205      	adds	r2, #5
 8001982:	601a      	str	r2, [r3, #0]
 8001984:	bd10      	pop	{r4, pc}
 8001986:	46c0      	nop			@ (mov r8, r8)
 8001988:	e000e010 	.word	0xe000e010

0800198c <LL_mDelay>:
 800198c:	4a0a      	ldr	r2, [pc, #40]	@ (80019b8 <LL_mDelay+0x2c>)
 800198e:	b082      	sub	sp, #8
 8001990:	6813      	ldr	r3, [r2, #0]
 8001992:	9301      	str	r3, [sp, #4]
 8001994:	9b01      	ldr	r3, [sp, #4]
 8001996:	1c43      	adds	r3, r0, #1
 8001998:	1e59      	subs	r1, r3, #1
 800199a:	418b      	sbcs	r3, r1
 800199c:	2180      	movs	r1, #128	@ 0x80
 800199e:	18c0      	adds	r0, r0, r3
 80019a0:	0249      	lsls	r1, r1, #9
 80019a2:	2800      	cmp	r0, #0
 80019a4:	d005      	beq.n	80019b2 <LL_mDelay+0x26>
 80019a6:	6813      	ldr	r3, [r2, #0]
 80019a8:	420b      	tst	r3, r1
 80019aa:	d0fc      	beq.n	80019a6 <LL_mDelay+0x1a>
 80019ac:	3801      	subs	r0, #1
 80019ae:	2800      	cmp	r0, #0
 80019b0:	d1f9      	bne.n	80019a6 <LL_mDelay+0x1a>
 80019b2:	b002      	add	sp, #8
 80019b4:	4770      	bx	lr
 80019b6:	46c0      	nop			@ (mov r8, r8)
 80019b8:	e000e010 	.word	0xe000e010

080019bc <LL_SetSystemCoreClock>:
 80019bc:	4b01      	ldr	r3, [pc, #4]	@ (80019c4 <LL_SetSystemCoreClock+0x8>)
 80019be:	6018      	str	r0, [r3, #0]
 80019c0:	4770      	bx	lr
 80019c2:	46c0      	nop			@ (mov r8, r8)
 80019c4:	20000004 	.word	0x20000004

080019c8 <LL_ADC_REG_Init>:
 80019c8:	68c2      	ldr	r2, [r0, #12]
 80019ca:	68c2      	ldr	r2, [r0, #12]
 80019cc:	6882      	ldr	r2, [r0, #8]
 80019ce:	0003      	movs	r3, r0
 80019d0:	b570      	push	{r4, r5, r6, lr}
 80019d2:	2001      	movs	r0, #1
 80019d4:	07d2      	lsls	r2, r2, #31
 80019d6:	d418      	bmi.n	8001a0a <LL_ADC_REG_Init+0x42>
 80019d8:	68d8      	ldr	r0, [r3, #12]
 80019da:	680a      	ldr	r2, [r1, #0]
 80019dc:	68ce      	ldr	r6, [r1, #12]
 80019de:	690d      	ldr	r5, [r1, #16]
 80019e0:	694c      	ldr	r4, [r1, #20]
 80019e2:	0280      	lsls	r0, r0, #10
 80019e4:	d412      	bmi.n	8001a0c <LL_ADC_REG_Init+0x44>
 80019e6:	4332      	orrs	r2, r6
 80019e8:	432a      	orrs	r2, r5
 80019ea:	4322      	orrs	r2, r4
 80019ec:	68d8      	ldr	r0, [r3, #12]
 80019ee:	688c      	ldr	r4, [r1, #8]
 80019f0:	4322      	orrs	r2, r4
 80019f2:	4c0a      	ldr	r4, [pc, #40]	@ (8001a1c <LL_ADC_REG_Init+0x54>)
 80019f4:	4020      	ands	r0, r4
 80019f6:	4302      	orrs	r2, r0
 80019f8:	60da      	str	r2, [r3, #12]
 80019fa:	68da      	ldr	r2, [r3, #12]
 80019fc:	0292      	lsls	r2, r2, #10
 80019fe:	d503      	bpl.n	8001a08 <LL_ADC_REG_Init+0x40>
 8001a00:	6a9a      	ldr	r2, [r3, #40]	@ 0x28
 8001a02:	6849      	ldr	r1, [r1, #4]
 8001a04:	430a      	orrs	r2, r1
 8001a06:	629a      	str	r2, [r3, #40]	@ 0x28
 8001a08:	2000      	movs	r0, #0
 8001a0a:	bd70      	pop	{r4, r5, r6, pc}
 8001a0c:	6848      	ldr	r0, [r1, #4]
 8001a0e:	28f0      	cmp	r0, #240	@ 0xf0
 8001a10:	d1e9      	bne.n	80019e6 <LL_ADC_REG_Init+0x1e>
 8001a12:	4332      	orrs	r2, r6
 8001a14:	68d8      	ldr	r0, [r3, #12]
 8001a16:	432a      	orrs	r2, r5
 8001a18:	e7ea      	b.n	80019f0 <LL_ADC_REG_Init+0x28>
 8001a1a:	46c0      	nop			@ (mov r8, r8)
 8001a1c:	fffec23c 	.word	0xfffec23c

08001a20 <LL_USART_Init>:
 8001a20:	b5f0      	push	{r4, r5, r6, r7, lr}
 8001a22:	6803      	ldr	r3, [r0, #0]
 8001a24:	0004      	movs	r4, r0
 8001a26:	000d      	movs	r5, r1
 8001a28:	2001      	movs	r0, #1
 8001a2a:	b085      	sub	sp, #20
 8001a2c:	07db      	lsls	r3, r3, #31
 8001a2e:	d425      	bmi.n	8001a7c <LL_USART_Init+0x5c>
 8001a30:	688b      	ldr	r3, [r1, #8]
 8001a32:	6909      	ldr	r1, [r1, #16]
 8001a34:	6822      	ldr	r2, [r4, #0]
 8001a36:	430b      	orrs	r3, r1
 8001a38:	6969      	ldr	r1, [r5, #20]
 8001a3a:	430b      	orrs	r3, r1
 8001a3c:	69e9      	ldr	r1, [r5, #28]
 8001a3e:	430b      	orrs	r3, r1
 8001a40:	4929      	ldr	r1, [pc, #164]	@ (8001ae8 <LL_USART_Init+0xc8>)
 8001a42:	400a      	ands	r2, r1
 8001a44:	4313      	orrs	r3, r2
 8001a46:	6023      	str	r3, [r4, #0]
 8001a48:	6863      	ldr	r3, [r4, #4]
 8001a4a:	4a28      	ldr	r2, [pc, #160]	@ (8001aec <LL_USART_Init+0xcc>)
 8001a4c:	4013      	ands	r3, r2
 8001a4e:	68ea      	ldr	r2, [r5, #12]
 8001a50:	4313      	orrs	r3, r2
 8001a52:	6063      	str	r3, [r4, #4]
 8001a54:	68a3      	ldr	r3, [r4, #8]
 8001a56:	4a26      	ldr	r2, [pc, #152]	@ (8001af0 <LL_USART_Init+0xd0>)
 8001a58:	4013      	ands	r3, r2
 8001a5a:	69aa      	ldr	r2, [r5, #24]
 8001a5c:	4313      	orrs	r3, r2
 8001a5e:	60a3      	str	r3, [r4, #8]
 8001a60:	4b24      	ldr	r3, [pc, #144]	@ (8001af4 <LL_USART_Init+0xd4>)
 8001a62:	429c      	cmp	r4, r3
 8001a64:	d00c      	beq.n	8001a80 <LL_USART_Init+0x60>
 8001a66:	4b24      	ldr	r3, [pc, #144]	@ (8001af8 <LL_USART_Init+0xd8>)
 8001a68:	429c      	cmp	r4, r3
 8001a6a:	d02b      	beq.n	8001ac4 <LL_USART_Init+0xa4>
 8001a6c:	682e      	ldr	r6, [r5, #0]
 8001a6e:	220f      	movs	r2, #15
 8001a70:	6ae3      	ldr	r3, [r4, #44]	@ 0x2c
 8001a72:	0436      	lsls	r6, r6, #16
 8001a74:	4393      	bics	r3, r2
 8001a76:	0c36      	lsrs	r6, r6, #16
 8001a78:	4333      	orrs	r3, r6
 8001a7a:	62e3      	str	r3, [r4, #44]	@ 0x2c
 8001a7c:	b005      	add	sp, #20
 8001a7e:	bdf0      	pop	{r4, r5, r6, r7, pc}
 8001a80:	3002      	adds	r0, #2
 8001a82:	f7ff fe49 	bl	8001718 <LL_RCC_GetUSARTClockFreq>
 8001a86:	0003      	movs	r3, r0
 8001a88:	2001      	movs	r0, #1
 8001a8a:	682e      	ldr	r6, [r5, #0]
 8001a8c:	2b00      	cmp	r3, #0
 8001a8e:	d0ee      	beq.n	8001a6e <LL_USART_Init+0x4e>
 8001a90:	686f      	ldr	r7, [r5, #4]
 8001a92:	2f00      	cmp	r7, #0
 8001a94:	d0eb      	beq.n	8001a6e <LL_USART_Init+0x4e>
 8001a96:	2e0b      	cmp	r6, #11
 8001a98:	d812      	bhi.n	8001ac0 <LL_USART_Init+0xa0>
 8001a9a:	4a18      	ldr	r2, [pc, #96]	@ (8001afc <LL_USART_Init+0xdc>)
 8001a9c:	00b1      	lsls	r1, r6, #2
 8001a9e:	5889      	ldr	r1, [r1, r2]
 8001aa0:	0018      	movs	r0, r3
 8001aa2:	f7fe fc17 	bl	80002d4 <__udivsi3>
 8001aa6:	2280      	movs	r2, #128	@ 0x80
 8001aa8:	69e9      	ldr	r1, [r5, #28]
 8001aaa:	087b      	lsrs	r3, r7, #1
 8001aac:	0212      	lsls	r2, r2, #8
 8001aae:	4291      	cmp	r1, r2
 8001ab0:	d00d      	beq.n	8001ace <LL_USART_Init+0xae>
 8001ab2:	18c0      	adds	r0, r0, r3
 8001ab4:	0039      	movs	r1, r7
 8001ab6:	f7fe fc0d 	bl	80002d4 <__udivsi3>
 8001aba:	0403      	lsls	r3, r0, #16
 8001abc:	0c1b      	lsrs	r3, r3, #16
 8001abe:	60e3      	str	r3, [r4, #12]
 8001ac0:	2000      	movs	r0, #0
 8001ac2:	e7d4      	b.n	8001a6e <LL_USART_Init+0x4e>
 8001ac4:	a801      	add	r0, sp, #4
 8001ac6:	f7ff fdc1 	bl	800164c <LL_RCC_GetSystemClocksFreq>
 8001aca:	9b03      	ldr	r3, [sp, #12]
 8001acc:	e7dc      	b.n	8001a88 <LL_USART_Init+0x68>
 8001ace:	0040      	lsls	r0, r0, #1
 8001ad0:	18c0      	adds	r0, r0, r3
 8001ad2:	0039      	movs	r1, r7
 8001ad4:	f7fe fbfe 	bl	80002d4 <__udivsi3>
 8001ad8:	4a09      	ldr	r2, [pc, #36]	@ (8001b00 <LL_USART_Init+0xe0>)
 8001ada:	0703      	lsls	r3, r0, #28
 8001adc:	4002      	ands	r2, r0
 8001ade:	0f5b      	lsrs	r3, r3, #29
 8001ae0:	4313      	orrs	r3, r2
 8001ae2:	2000      	movs	r0, #0
 8001ae4:	60e3      	str	r3, [r4, #12]
 8001ae6:	e7c2      	b.n	8001a6e <LL_USART_Init+0x4e>
 8001ae8:	efff69f3 	.word	0xefff69f3
 8001aec:	ffffcfff 	.word	0xffffcfff
 8001af0:	fffffcff 	.word	0xfffffcff
 8001af4:	40013800 	.word	0x40013800
 8001af8:	40004400 	.word	0x40004400
 8001afc:	080026ec 	.word	0x080026ec
 8001b00:	0000fff0 	.word	0x0000fff0

08001b04 <SystemClock_Config1>:
 8001b04:	2107      	movs	r1, #7
 8001b06:	4a1a      	ldr	r2, [pc, #104]	@ (8001b70 <SystemClock_Config1+0x6c>)
 8001b08:	b510      	push	{r4, lr}
 8001b0a:	6813      	ldr	r3, [r2, #0]
 8001b0c:	438b      	bics	r3, r1
 8001b0e:	3906      	subs	r1, #6
 8001b10:	430b      	orrs	r3, r1
 8001b12:	6013      	str	r3, [r2, #0]
 8001b14:	2280      	movs	r2, #128	@ 0x80
 8001b16:	4b17      	ldr	r3, [pc, #92]	@ (8001b74 <SystemClock_Config1+0x70>)
 8001b18:	0052      	lsls	r2, r2, #1
 8001b1a:	6819      	ldr	r1, [r3, #0]
 8001b1c:	430a      	orrs	r2, r1
 8001b1e:	2180      	movs	r1, #128	@ 0x80
 8001b20:	601a      	str	r2, [r3, #0]
 8001b22:	00c9      	lsls	r1, r1, #3
 8001b24:	681a      	ldr	r2, [r3, #0]
 8001b26:	420a      	tst	r2, r1
 8001b28:	d0fc      	beq.n	8001b24 <SystemClock_Config1+0x20>
 8001b2a:	6859      	ldr	r1, [r3, #4]
 8001b2c:	4a12      	ldr	r2, [pc, #72]	@ (8001b78 <SystemClock_Config1+0x74>)
 8001b2e:	4011      	ands	r1, r2
 8001b30:	2280      	movs	r2, #128	@ 0x80
 8001b32:	01d2      	lsls	r2, r2, #7
 8001b34:	430a      	orrs	r2, r1
 8001b36:	605a      	str	r2, [r3, #4]
 8001b38:	681a      	ldr	r2, [r3, #0]
 8001b3a:	4910      	ldr	r1, [pc, #64]	@ (8001b7c <SystemClock_Config1+0x78>)
 8001b3c:	400a      	ands	r2, r1
 8001b3e:	601a      	str	r2, [r3, #0]
 8001b40:	689a      	ldr	r2, [r3, #8]
 8001b42:	490f      	ldr	r1, [pc, #60]	@ (8001b80 <SystemClock_Config1+0x7c>)
 8001b44:	400a      	ands	r2, r1
 8001b46:	2107      	movs	r1, #7
 8001b48:	609a      	str	r2, [r3, #8]
 8001b4a:	689a      	ldr	r2, [r3, #8]
 8001b4c:	438a      	bics	r2, r1
 8001b4e:	609a      	str	r2, [r3, #8]
 8001b50:	4a08      	ldr	r2, [pc, #32]	@ (8001b74 <SystemClock_Config1+0x70>)
 8001b52:	3131      	adds	r1, #49	@ 0x31
 8001b54:	6893      	ldr	r3, [r2, #8]
 8001b56:	4219      	tst	r1, r3
 8001b58:	d1fc      	bne.n	8001b54 <SystemClock_Config1+0x50>
 8001b5a:	6893      	ldr	r3, [r2, #8]
 8001b5c:	4909      	ldr	r1, [pc, #36]	@ (8001b84 <SystemClock_Config1+0x80>)
 8001b5e:	480a      	ldr	r0, [pc, #40]	@ (8001b88 <SystemClock_Config1+0x84>)
 8001b60:	400b      	ands	r3, r1
 8001b62:	6093      	str	r3, [r2, #8]
 8001b64:	f7ff ff02 	bl	800196c <LL_Init1msTick>
 8001b68:	4807      	ldr	r0, [pc, #28]	@ (8001b88 <SystemClock_Config1+0x84>)
 8001b6a:	f7ff ff27 	bl	80019bc <LL_SetSystemCoreClock>
 8001b6e:	bd10      	pop	{r4, pc}
 8001b70:	40022000 	.word	0x40022000
 8001b74:	40021000 	.word	0x40021000
 8001b78:	ffff80ff 	.word	0xffff80ff
 8001b7c:	ffffc7ff 	.word	0xffffc7ff
 8001b80:	fffff0ff 	.word	0xfffff0ff
 8001b84:	ffff8fff 	.word	0xffff8fff
 8001b88:	02dc6c00 	.word	0x02dc6c00

08001b8c <InitializeSystem>:
 8001b8c:	2201      	movs	r2, #1
 8001b8e:	4b13      	ldr	r3, [pc, #76]	@ (8001bdc <InitializeSystem+0x50>)
 8001b90:	b500      	push	{lr}
 8001b92:	6c19      	ldr	r1, [r3, #64]	@ 0x40
 8001b94:	b083      	sub	sp, #12
 8001b96:	4311      	orrs	r1, r2
 8001b98:	6419      	str	r1, [r3, #64]	@ 0x40
 8001b9a:	6c19      	ldr	r1, [r3, #64]	@ 0x40
 8001b9c:	400a      	ands	r2, r1
 8001b9e:	2180      	movs	r1, #128	@ 0x80
 8001ba0:	9201      	str	r2, [sp, #4]
 8001ba2:	9a01      	ldr	r2, [sp, #4]
 8001ba4:	6bda      	ldr	r2, [r3, #60]	@ 0x3c
 8001ba6:	0549      	lsls	r1, r1, #21
 8001ba8:	430a      	orrs	r2, r1
 8001baa:	63da      	str	r2, [r3, #60]	@ 0x3c
 8001bac:	6bdb      	ldr	r3, [r3, #60]	@ 0x3c
 8001bae:	400b      	ands	r3, r1
 8001bb0:	9300      	str	r3, [sp, #0]
 8001bb2:	9b00      	ldr	r3, [sp, #0]
 8001bb4:	f7ff ffa6 	bl	8001b04 <SystemClock_Config1>
 8001bb8:	21c0      	movs	r1, #192	@ 0xc0
 8001bba:	4a09      	ldr	r2, [pc, #36]	@ (8001be0 <InitializeSystem+0x54>)
 8001bbc:	4b09      	ldr	r3, [pc, #36]	@ (8001be4 <InitializeSystem+0x58>)
 8001bbe:	480a      	ldr	r0, [pc, #40]	@ (8001be8 <InitializeSystem+0x5c>)
 8001bc0:	6053      	str	r3, [r2, #4]
 8001bc2:	6a03      	ldr	r3, [r0, #32]
 8001bc4:	0609      	lsls	r1, r1, #24
 8001bc6:	021b      	lsls	r3, r3, #8
 8001bc8:	0a1b      	lsrs	r3, r3, #8
 8001bca:	430b      	orrs	r3, r1
 8001bcc:	6203      	str	r3, [r0, #32]
 8001bce:	2300      	movs	r3, #0
 8001bd0:	6093      	str	r3, [r2, #8]
 8001bd2:	3307      	adds	r3, #7
 8001bd4:	6013      	str	r3, [r2, #0]
 8001bd6:	b003      	add	sp, #12
 8001bd8:	bd00      	pop	{pc}
 8001bda:	46c0      	nop			@ (mov r8, r8)
 8001bdc:	40021000 	.word	0x40021000
 8001be0:	e000e010 	.word	0xe000e010
 8001be4:	0000bb7f 	.word	0x0000bb7f
 8001be8:	e000ed00 	.word	0xe000ed00

08001bec <SDK_GPIO_Init>:
 8001bec:	b500      	push	{lr}
 8001bee:	b08d      	sub	sp, #52	@ 0x34
 8001bf0:	2210      	movs	r2, #16
 8001bf2:	2100      	movs	r1, #0
 8001bf4:	a808      	add	r0, sp, #32
 8001bf6:	f7fe fad3 	bl	80001a0 <memset>
 8001bfa:	2204      	movs	r2, #4
 8001bfc:	4b22      	ldr	r3, [pc, #136]	@ (8001c88 <SDK_GPIO_Init+0x9c>)
 8001bfe:	4823      	ldr	r0, [pc, #140]	@ (8001c8c <SDK_GPIO_Init+0xa0>)
 8001c00:	6b59      	ldr	r1, [r3, #52]	@ 0x34
 8001c02:	4311      	orrs	r1, r2
 8001c04:	6359      	str	r1, [r3, #52]	@ 0x34
 8001c06:	6b59      	ldr	r1, [r3, #52]	@ 0x34
 8001c08:	400a      	ands	r2, r1
 8001c0a:	9205      	str	r2, [sp, #20]
 8001c0c:	9a05      	ldr	r2, [sp, #20]
 8001c0e:	2220      	movs	r2, #32
 8001c10:	6b59      	ldr	r1, [r3, #52]	@ 0x34
 8001c12:	4311      	orrs	r1, r2
 8001c14:	6359      	str	r1, [r3, #52]	@ 0x34
 8001c16:	6b59      	ldr	r1, [r3, #52]	@ 0x34
 8001c18:	400a      	ands	r2, r1
 8001c1a:	9204      	str	r2, [sp, #16]
 8001c1c:	9a04      	ldr	r2, [sp, #16]
 8001c1e:	2201      	movs	r2, #1
 8001c20:	6b59      	ldr	r1, [r3, #52]	@ 0x34
 8001c22:	4311      	orrs	r1, r2
 8001c24:	6359      	str	r1, [r3, #52]	@ 0x34
 8001c26:	6b59      	ldr	r1, [r3, #52]	@ 0x34
 8001c28:	400a      	ands	r2, r1
 8001c2a:	9203      	str	r2, [sp, #12]
 8001c2c:	9a03      	ldr	r2, [sp, #12]
 8001c2e:	2202      	movs	r2, #2
 8001c30:	6b59      	ldr	r1, [r3, #52]	@ 0x34
 8001c32:	4311      	orrs	r1, r2
 8001c34:	6359      	str	r1, [r3, #52]	@ 0x34
 8001c36:	6b59      	ldr	r1, [r3, #52]	@ 0x34
 8001c38:	400a      	ands	r2, r1
 8001c3a:	9202      	str	r2, [sp, #8]
 8001c3c:	9a02      	ldr	r2, [sp, #8]
 8001c3e:	2208      	movs	r2, #8
 8001c40:	6b59      	ldr	r1, [r3, #52]	@ 0x34
 8001c42:	4311      	orrs	r1, r2
 8001c44:	6359      	str	r1, [r3, #52]	@ 0x34
 8001c46:	6b5b      	ldr	r3, [r3, #52]	@ 0x34
 8001c48:	a906      	add	r1, sp, #24
 8001c4a:	401a      	ands	r2, r3
 8001c4c:	9201      	str	r2, [sp, #4]
 8001c4e:	9b01      	ldr	r3, [sp, #4]
 8001c50:	2303      	movs	r3, #3
 8001c52:	4a0f      	ldr	r2, [pc, #60]	@ (8001c90 <SDK_GPIO_Init+0xa4>)
 8001c54:	9206      	str	r2, [sp, #24]
 8001c56:	9307      	str	r3, [sp, #28]
 8001c58:	f7ff fdac 	bl	80017b4 <LL_GPIO_Init>
 8001c5c:	a906      	add	r1, sp, #24
 8001c5e:	480d      	ldr	r0, [pc, #52]	@ (8001c94 <SDK_GPIO_Init+0xa8>)
 8001c60:	f7ff fda8 	bl	80017b4 <LL_GPIO_Init>
 8001c64:	a906      	add	r1, sp, #24
 8001c66:	480c      	ldr	r0, [pc, #48]	@ (8001c98 <SDK_GPIO_Init+0xac>)
 8001c68:	f7ff fda4 	bl	80017b4 <LL_GPIO_Init>
 8001c6c:	a906      	add	r1, sp, #24
 8001c6e:	480b      	ldr	r0, [pc, #44]	@ (8001c9c <SDK_GPIO_Init+0xb0>)
 8001c70:	f7ff fda0 	bl	80017b4 <LL_GPIO_Init>
 8001c74:	20a0      	movs	r0, #160	@ 0xa0
 8001c76:	4b0a      	ldr	r3, [pc, #40]	@ (8001ca0 <SDK_GPIO_Init+0xb4>)
 8001c78:	a906      	add	r1, sp, #24
 8001c7a:	05c0      	lsls	r0, r0, #23
 8001c7c:	9306      	str	r3, [sp, #24]
 8001c7e:	f7ff fd99 	bl	80017b4 <LL_GPIO_Init>
 8001c82:	b00d      	add	sp, #52	@ 0x34
 8001c84:	bd00      	pop	{pc}
 8001c86:	46c0      	nop			@ (mov r8, r8)
 8001c88:	40021000 	.word	0x40021000
 8001c8c:	50000800 	.word	0x50000800
 8001c90:	0000ffff 	.word	0x0000ffff
 8001c94:	50001400 	.word	0x50001400
 8001c98:	50000400 	.word	0x50000400
 8001c9c:	50000c00 	.word	0x50000c00
 8001ca0:	00009fff 	.word	0x00009fff

08001ca4 <SDK_GPIO_ConfigPin>:
 8001ca4:	b510      	push	{r4, lr}
 8001ca6:	2400      	movs	r4, #0
 8001ca8:	b086      	sub	sp, #24
 8001caa:	9304      	str	r3, [sp, #16]
 8001cac:	9b08      	ldr	r3, [sp, #32]
 8001cae:	9100      	str	r1, [sp, #0]
 8001cb0:	9302      	str	r3, [sp, #8]
 8001cb2:	9b09      	ldr	r3, [sp, #36]	@ 0x24
 8001cb4:	4669      	mov	r1, sp
 8001cb6:	9405      	str	r4, [sp, #20]
 8001cb8:	9201      	str	r2, [sp, #4]
 8001cba:	9303      	str	r3, [sp, #12]
 8001cbc:	f7ff fd7a 	bl	80017b4 <LL_GPIO_Init>
 8001cc0:	b006      	add	sp, #24
 8001cc2:	bd10      	pop	{r4, pc}

08001cc4 <SDK_GPIO_WritePin>:
 8001cc4:	2a01      	cmp	r2, #1
 8001cc6:	d001      	beq.n	8001ccc <SDK_GPIO_WritePin+0x8>
 8001cc8:	6281      	str	r1, [r0, #40]	@ 0x28
 8001cca:	4770      	bx	lr
 8001ccc:	6181      	str	r1, [r0, #24]
 8001cce:	e7fc      	b.n	8001cca <SDK_GPIO_WritePin+0x6>

08001cd0 <SDK_EXTI_ConfigPin>:
 8001cd0:	b5f0      	push	{r4, r5, r6, r7, lr}
 8001cd2:	46ce      	mov	lr, r9
 8001cd4:	4647      	mov	r7, r8
 8001cd6:	2400      	movs	r4, #0
 8001cd8:	b580      	push	{r7, lr}
 8001cda:	b083      	sub	sp, #12
 8001cdc:	001f      	movs	r7, r3
 8001cde:	ab0a      	add	r3, sp, #40	@ 0x28
 8001ce0:	4690      	mov	r8, r2
 8001ce2:	cb04      	ldmia	r3!, {r2}
 8001ce4:	4689      	mov	r9, r1
 8001ce6:	571c      	ldrsb	r4, [r3, r4]
 8001ce8:	9b0d      	ldr	r3, [sp, #52]	@ 0x34
 8001cea:	2501      	movs	r5, #1
 8001cec:	9300      	str	r3, [sp, #0]
 8001cee:	466b      	mov	r3, sp
 8001cf0:	0006      	movs	r6, r0
 8001cf2:	4668      	mov	r0, sp
 8001cf4:	9501      	str	r5, [sp, #4]
 8001cf6:	719a      	strb	r2, [r3, #6]
 8001cf8:	f7ff fdde 	bl	80018b8 <LL_EXTI_Init>
 8001cfc:	4649      	mov	r1, r9
 8001cfe:	4643      	mov	r3, r8
 8001d00:	4349      	muls	r1, r1
 8001d02:	434b      	muls	r3, r1
 8001d04:	6832      	ldr	r2, [r6, #0]
 8001d06:	0048      	lsls	r0, r1, #1
 8001d08:	1840      	adds	r0, r0, r1
 8001d0a:	4382      	bics	r2, r0
 8001d0c:	431a      	orrs	r2, r3
 8001d0e:	6032      	str	r2, [r6, #0]
 8001d10:	4379      	muls	r1, r7
 8001d12:	68f3      	ldr	r3, [r6, #12]
 8001d14:	9a0e      	ldr	r2, [sp, #56]	@ 0x38
 8001d16:	4383      	bics	r3, r0
 8001d18:	430b      	orrs	r3, r1
 8001d1a:	60f3      	str	r3, [r6, #12]
 8001d1c:	2607      	movs	r6, #7
 8001d1e:	2303      	movs	r3, #3
 8001d20:	491a      	ldr	r1, [pc, #104]	@ (8001d8c <SDK_EXTI_ConfigPin+0xbc>)
 8001d22:	980e      	ldr	r0, [sp, #56]	@ 0x38
 8001d24:	468c      	mov	ip, r1
 8001d26:	0c00      	lsrs	r0, r0, #16
 8001d28:	4086      	lsls	r6, r0
 8001d2a:	401a      	ands	r2, r3
 8001d2c:	0092      	lsls	r2, r2, #2
 8001d2e:	4462      	add	r2, ip
 8001d30:	6e11      	ldr	r1, [r2, #96]	@ 0x60
 8001d32:	4023      	ands	r3, r4
 8001d34:	43b1      	bics	r1, r6
 8001d36:	9e0c      	ldr	r6, [sp, #48]	@ 0x30
 8001d38:	00db      	lsls	r3, r3, #3
 8001d3a:	4086      	lsls	r6, r0
 8001d3c:	4331      	orrs	r1, r6
 8001d3e:	6611      	str	r1, [r2, #96]	@ 0x60
 8001d40:	22ff      	movs	r2, #255	@ 0xff
 8001d42:	409a      	lsls	r2, r3
 8001d44:	43d3      	mvns	r3, r2
 8001d46:	2c00      	cmp	r4, #0
 8001d48:	db13      	blt.n	8001d72 <SDK_EXTI_ConfigPin+0xa2>
 8001d4a:	4911      	ldr	r1, [pc, #68]	@ (8001d90 <SDK_EXTI_ConfigPin+0xc0>)
 8001d4c:	20c0      	movs	r0, #192	@ 0xc0
 8001d4e:	468c      	mov	ip, r1
 8001d50:	08a2      	lsrs	r2, r4, #2
 8001d52:	0092      	lsls	r2, r2, #2
 8001d54:	4462      	add	r2, ip
 8001d56:	0080      	lsls	r0, r0, #2
 8001d58:	5811      	ldr	r1, [r2, r0]
 8001d5a:	400b      	ands	r3, r1
 8001d5c:	5013      	str	r3, [r2, r0]
 8001d5e:	231f      	movs	r3, #31
 8001d60:	4023      	ands	r3, r4
 8001d62:	409d      	lsls	r5, r3
 8001d64:	4663      	mov	r3, ip
 8001d66:	601d      	str	r5, [r3, #0]
 8001d68:	b003      	add	sp, #12
 8001d6a:	bcc0      	pop	{r6, r7}
 8001d6c:	46b9      	mov	r9, r7
 8001d6e:	46b0      	mov	r8, r6
 8001d70:	bdf0      	pop	{r4, r5, r6, r7, pc}
 8001d72:	220f      	movs	r2, #15
 8001d74:	4907      	ldr	r1, [pc, #28]	@ (8001d94 <SDK_EXTI_ConfigPin+0xc4>)
 8001d76:	4022      	ands	r2, r4
 8001d78:	468c      	mov	ip, r1
 8001d7a:	3a08      	subs	r2, #8
 8001d7c:	0892      	lsrs	r2, r2, #2
 8001d7e:	0092      	lsls	r2, r2, #2
 8001d80:	4462      	add	r2, ip
 8001d82:	69d1      	ldr	r1, [r2, #28]
 8001d84:	400b      	ands	r3, r1
 8001d86:	61d3      	str	r3, [r2, #28]
 8001d88:	e7ee      	b.n	8001d68 <SDK_EXTI_ConfigPin+0x98>
 8001d8a:	46c0      	nop			@ (mov r8, r8)
 8001d8c:	40021800 	.word	0x40021800
 8001d90:	e000e100 	.word	0xe000e100
 8001d94:	e000ed00 	.word	0xe000ed00

08001d98 <SDK_PWM_Init>:
 8001d98:	23a0      	movs	r3, #160	@ 0xa0
 8001d9a:	2180      	movs	r1, #128	@ 0x80
 8001d9c:	05db      	lsls	r3, r3, #23
 8001d9e:	681a      	ldr	r2, [r3, #0]
 8001da0:	481c      	ldr	r0, [pc, #112]	@ (8001e14 <SDK_PWM_Init+0x7c>)
 8001da2:	0109      	lsls	r1, r1, #4
 8001da4:	4002      	ands	r2, r0
 8001da6:	430a      	orrs	r2, r1
 8001da8:	601a      	str	r2, [r3, #0]
 8001daa:	68da      	ldr	r2, [r3, #12]
 8001dac:	b082      	sub	sp, #8
 8001dae:	4002      	ands	r2, r0
 8001db0:	60da      	str	r2, [r3, #12]
 8001db2:	689a      	ldr	r2, [r3, #8]
 8001db4:	4002      	ands	r2, r0
 8001db6:	430a      	orrs	r2, r1
 8001db8:	609a      	str	r2, [r3, #8]
 8001dba:	6a18      	ldr	r0, [r3, #32]
 8001dbc:	4a16      	ldr	r2, [pc, #88]	@ (8001e18 <SDK_PWM_Init+0x80>)
 8001dbe:	4010      	ands	r0, r2
 8001dc0:	22a0      	movs	r2, #160	@ 0xa0
 8001dc2:	03d2      	lsls	r2, r2, #15
 8001dc4:	4302      	orrs	r2, r0
 8001dc6:	621a      	str	r2, [r3, #32]
 8001dc8:	4b14      	ldr	r3, [pc, #80]	@ (8001e1c <SDK_PWM_Init+0x84>)
 8001dca:	4815      	ldr	r0, [pc, #84]	@ (8001e20 <SDK_PWM_Init+0x88>)
 8001dcc:	6c1a      	ldr	r2, [r3, #64]	@ 0x40
 8001dce:	430a      	orrs	r2, r1
 8001dd0:	641a      	str	r2, [r3, #64]	@ 0x40
 8001dd2:	6c1b      	ldr	r3, [r3, #64]	@ 0x40
 8001dd4:	400b      	ands	r3, r1
 8001dd6:	2170      	movs	r1, #112	@ 0x70
 8001dd8:	9301      	str	r3, [sp, #4]
 8001dda:	9b01      	ldr	r3, [sp, #4]
 8001ddc:	4b11      	ldr	r3, [pc, #68]	@ (8001e24 <SDK_PWM_Init+0x8c>)
 8001dde:	681a      	ldr	r2, [r3, #0]
 8001de0:	438a      	bics	r2, r1
 8001de2:	601a      	str	r2, [r3, #0]
 8001de4:	220a      	movs	r2, #10
 8001de6:	629a      	str	r2, [r3, #40]	@ 0x28
 8001de8:	4a0f      	ldr	r2, [pc, #60]	@ (8001e28 <SDK_PWM_Init+0x90>)
 8001dea:	4910      	ldr	r1, [pc, #64]	@ (8001e2c <SDK_PWM_Init+0x94>)
 8001dec:	62da      	str	r2, [r3, #44]	@ 0x2c
 8001dee:	680a      	ldr	r2, [r1, #0]
 8001df0:	4002      	ands	r2, r0
 8001df2:	2060      	movs	r0, #96	@ 0x60
 8001df4:	4302      	orrs	r2, r0
 8001df6:	600a      	str	r2, [r1, #0]
 8001df8:	22e6      	movs	r2, #230	@ 0xe6
 8001dfa:	32ff      	adds	r2, #255	@ 0xff
 8001dfc:	635a      	str	r2, [r3, #52]	@ 0x34
 8001dfe:	680a      	ldr	r2, [r1, #0]
 8001e00:	3858      	subs	r0, #88	@ 0x58
 8001e02:	4302      	orrs	r2, r0
 8001e04:	600a      	str	r2, [r1, #0]
 8001e06:	2101      	movs	r1, #1
 8001e08:	6a1a      	ldr	r2, [r3, #32]
 8001e0a:	430a      	orrs	r2, r1
 8001e0c:	621a      	str	r2, [r3, #32]
 8001e0e:	b002      	add	sp, #8
 8001e10:	4770      	bx	lr
 8001e12:	46c0      	nop			@ (mov r8, r8)
 8001e14:	fffff3ff 	.word	0xfffff3ff
 8001e18:	ff0fffff 	.word	0xff0fffff
 8001e1c:	40021000 	.word	0x40021000
 8001e20:	fffeff8c 	.word	0xfffeff8c
 8001e24:	40012c00 	.word	0x40012c00
 8001e28:	000003c9 	.word	0x000003c9
 8001e2c:	40012c18 	.word	0x40012c18

08001e30 <SDK_PWM_Start>:
 8001e30:	2101      	movs	r1, #1
 8001e32:	4b05      	ldr	r3, [pc, #20]	@ (8001e48 <SDK_PWM_Start+0x18>)
 8001e34:	681a      	ldr	r2, [r3, #0]
 8001e36:	430a      	orrs	r2, r1
 8001e38:	601a      	str	r2, [r3, #0]
 8001e3a:	2280      	movs	r2, #128	@ 0x80
 8001e3c:	6c59      	ldr	r1, [r3, #68]	@ 0x44
 8001e3e:	01d2      	lsls	r2, r2, #7
 8001e40:	430a      	orrs	r2, r1
 8001e42:	645a      	str	r2, [r3, #68]	@ 0x44
 8001e44:	4770      	bx	lr
 8001e46:	46c0      	nop			@ (mov r8, r8)
 8001e48:	40012c00 	.word	0x40012c00

08001e4c <SDK_PWM_Stop>:
 8001e4c:	2101      	movs	r1, #1
 8001e4e:	4b04      	ldr	r3, [pc, #16]	@ (8001e60 <SDK_PWM_Stop+0x14>)
 8001e50:	681a      	ldr	r2, [r3, #0]
 8001e52:	438a      	bics	r2, r1
 8001e54:	601a      	str	r2, [r3, #0]
 8001e56:	6c5a      	ldr	r2, [r3, #68]	@ 0x44
 8001e58:	4902      	ldr	r1, [pc, #8]	@ (8001e64 <SDK_PWM_Stop+0x18>)
 8001e5a:	400a      	ands	r2, r1
 8001e5c:	645a      	str	r2, [r3, #68]	@ 0x44
 8001e5e:	4770      	bx	lr
 8001e60:	40012c00 	.word	0x40012c00
 8001e64:	ffffbfff 	.word	0xffffbfff

08001e68 <SysTick_Handler>:
 8001e68:	4a02      	ldr	r2, [pc, #8]	@ (8001e74 <SysTick_Handler+0xc>)
 8001e6a:	6813      	ldr	r3, [r2, #0]
 8001e6c:	3301      	adds	r3, #1
 8001e6e:	6013      	str	r3, [r2, #0]
 8001e70:	4770      	bx	lr
 8001e72:	46c0      	nop			@ (mov r8, r8)
 8001e74:	20000348 	.word	0x20000348

08001e78 <GetmsTicks>:
 8001e78:	4b01      	ldr	r3, [pc, #4]	@ (8001e80 <GetmsTicks+0x8>)
 8001e7a:	6818      	ldr	r0, [r3, #0]
 8001e7c:	4770      	bx	lr
 8001e7e:	46c0      	nop			@ (mov r8, r8)
 8001e80:	20000348 	.word	0x20000348

08001e84 <TIM3_IRQHandler>:
 8001e84:	4a09      	ldr	r2, [pc, #36]	@ (8001eac <TIM3_IRQHandler+0x28>)
 8001e86:	6913      	ldr	r3, [r2, #16]
 8001e88:	07db      	lsls	r3, r3, #31
 8001e8a:	d50d      	bpl.n	8001ea8 <TIM3_IRQHandler+0x24>
 8001e8c:	2302      	movs	r3, #2
 8001e8e:	21a0      	movs	r1, #160	@ 0xa0
 8001e90:	425b      	negs	r3, r3
 8001e92:	6113      	str	r3, [r2, #16]
 8001e94:	2280      	movs	r2, #128	@ 0x80
 8001e96:	05c9      	lsls	r1, r1, #23
 8001e98:	6948      	ldr	r0, [r1, #20]
 8001e9a:	0392      	lsls	r2, r2, #14
 8001e9c:	0403      	lsls	r3, r0, #16
 8001e9e:	4013      	ands	r3, r2
 8001ea0:	2220      	movs	r2, #32
 8001ea2:	4382      	bics	r2, r0
 8001ea4:	4313      	orrs	r3, r2
 8001ea6:	618b      	str	r3, [r1, #24]
 8001ea8:	4770      	bx	lr
 8001eaa:	46c0      	nop			@ (mov r8, r8)
 8001eac:	40000400 	.word	0x40000400

08001eb0 <USART1_IRQHandler>:
 8001eb0:	b510      	push	{r4, lr}
 8001eb2:	4a16      	ldr	r2, [pc, #88]	@ (8001f0c <USART1_IRQHandler+0x5c>)
 8001eb4:	4916      	ldr	r1, [pc, #88]	@ (8001f10 <USART1_IRQHandler+0x60>)
 8001eb6:	b082      	sub	sp, #8
 8001eb8:	69cc      	ldr	r4, [r1, #28]
 8001eba:	7813      	ldrb	r3, [r2, #0]
 8001ebc:	3301      	adds	r3, #1
 8001ebe:	b2db      	uxtb	r3, r3
 8001ec0:	7013      	strb	r3, [r2, #0]
 8001ec2:	06a3      	lsls	r3, r4, #26
 8001ec4:	d416      	bmi.n	8001ef4 <USART1_IRQHandler+0x44>
 8001ec6:	2302      	movs	r3, #2
 8001ec8:	4223      	tst	r3, r4
 8001eca:	d003      	beq.n	8001ed4 <USART1_IRQHandler+0x24>
 8001ecc:	4910      	ldr	r1, [pc, #64]	@ (8001f10 <USART1_IRQHandler+0x60>)
 8001ece:	6a0a      	ldr	r2, [r1, #32]
 8001ed0:	4313      	orrs	r3, r2
 8001ed2:	620b      	str	r3, [r1, #32]
 8001ed4:	2308      	movs	r3, #8
 8001ed6:	4223      	tst	r3, r4
 8001ed8:	d003      	beq.n	8001ee2 <USART1_IRQHandler+0x32>
 8001eda:	490d      	ldr	r1, [pc, #52]	@ (8001f10 <USART1_IRQHandler+0x60>)
 8001edc:	6a0a      	ldr	r2, [r1, #32]
 8001ede:	4313      	orrs	r3, r2
 8001ee0:	620b      	str	r3, [r1, #32]
 8001ee2:	2304      	movs	r3, #4
 8001ee4:	4223      	tst	r3, r4
 8001ee6:	d003      	beq.n	8001ef0 <USART1_IRQHandler+0x40>
 8001ee8:	4909      	ldr	r1, [pc, #36]	@ (8001f10 <USART1_IRQHandler+0x60>)
 8001eea:	6a0a      	ldr	r2, [r1, #32]
 8001eec:	4313      	orrs	r3, r2
 8001eee:	620b      	str	r3, [r1, #32]
 8001ef0:	b002      	add	sp, #8
 8001ef2:	bd10      	pop	{r4, pc}
 8001ef4:	466a      	mov	r2, sp
 8001ef6:	6a4b      	ldr	r3, [r1, #36]	@ 0x24
 8001ef8:	1dd1      	adds	r1, r2, #7
 8001efa:	4a06      	ldr	r2, [pc, #24]	@ (8001f14 <USART1_IRQHandler+0x64>)
 8001efc:	b2db      	uxtb	r3, r3
 8001efe:	7013      	strb	r3, [r2, #0]
 8001f00:	4805      	ldr	r0, [pc, #20]	@ (8001f18 <USART1_IRQHandler+0x68>)
 8001f02:	2201      	movs	r2, #1
 8001f04:	700b      	strb	r3, [r1, #0]
 8001f06:	f7fe fd33 	bl	8000970 <rb_writeBuf>
 8001f0a:	e7dc      	b.n	8001ec6 <USART1_IRQHandler+0x16>
 8001f0c:	2000078f 	.word	0x2000078f
 8001f10:	40013800 	.word	0x40013800
 8001f14:	2000078d 	.word	0x2000078d
 8001f18:	2000067c 	.word	0x2000067c

08001f1c <USART2_IRQHandler>:
 8001f1c:	b510      	push	{r4, lr}
 8001f1e:	4a16      	ldr	r2, [pc, #88]	@ (8001f78 <USART2_IRQHandler+0x5c>)
 8001f20:	4916      	ldr	r1, [pc, #88]	@ (8001f7c <USART2_IRQHandler+0x60>)
 8001f22:	b082      	sub	sp, #8
 8001f24:	69cc      	ldr	r4, [r1, #28]
 8001f26:	7813      	ldrb	r3, [r2, #0]
 8001f28:	3301      	adds	r3, #1
 8001f2a:	b2db      	uxtb	r3, r3
 8001f2c:	7013      	strb	r3, [r2, #0]
 8001f2e:	06a3      	lsls	r3, r4, #26
 8001f30:	d416      	bmi.n	8001f60 <USART2_IRQHandler+0x44>
 8001f32:	2302      	movs	r3, #2
 8001f34:	4223      	tst	r3, r4
 8001f36:	d003      	beq.n	8001f40 <USART2_IRQHandler+0x24>
 8001f38:	4910      	ldr	r1, [pc, #64]	@ (8001f7c <USART2_IRQHandler+0x60>)
 8001f3a:	6a0a      	ldr	r2, [r1, #32]
 8001f3c:	4313      	orrs	r3, r2
 8001f3e:	620b      	str	r3, [r1, #32]
 8001f40:	2308      	movs	r3, #8
 8001f42:	4223      	tst	r3, r4
 8001f44:	d003      	beq.n	8001f4e <USART2_IRQHandler+0x32>
 8001f46:	490d      	ldr	r1, [pc, #52]	@ (8001f7c <USART2_IRQHandler+0x60>)
 8001f48:	6a0a      	ldr	r2, [r1, #32]
 8001f4a:	4313      	orrs	r3, r2
 8001f4c:	620b      	str	r3, [r1, #32]
 8001f4e:	2304      	movs	r3, #4
 8001f50:	4223      	tst	r3, r4
 8001f52:	d003      	beq.n	8001f5c <USART2_IRQHandler+0x40>
 8001f54:	4909      	ldr	r1, [pc, #36]	@ (8001f7c <USART2_IRQHandler+0x60>)
 8001f56:	6a0a      	ldr	r2, [r1, #32]
 8001f58:	4313      	orrs	r3, r2
 8001f5a:	620b      	str	r3, [r1, #32]
 8001f5c:	b002      	add	sp, #8
 8001f5e:	bd10      	pop	{r4, pc}
 8001f60:	466a      	mov	r2, sp
 8001f62:	6a4b      	ldr	r3, [r1, #36]	@ 0x24
 8001f64:	1dd1      	adds	r1, r2, #7
 8001f66:	4a06      	ldr	r2, [pc, #24]	@ (8001f80 <USART2_IRQHandler+0x64>)
 8001f68:	b2db      	uxtb	r3, r3
 8001f6a:	7013      	strb	r3, [r2, #0]
 8001f6c:	4805      	ldr	r0, [pc, #20]	@ (8001f84 <USART2_IRQHandler+0x68>)
 8001f6e:	2201      	movs	r2, #1
 8001f70:	700b      	strb	r3, [r1, #0]
 8001f72:	f7fe fcfd 	bl	8000970 <rb_writeBuf>
 8001f76:	e7dc      	b.n	8001f32 <USART2_IRQHandler+0x16>
 8001f78:	2000078e 	.word	0x2000078e
 8001f7c:	40004400 	.word	0x40004400
 8001f80:	2000078c 	.word	0x2000078c
 8001f84:	2000045c 	.word	0x2000045c

08001f88 <SEA_USART1_UART_Init>:
 8001f88:	b570      	push	{r4, r5, r6, lr}
 8001f8a:	b094      	sub	sp, #80	@ 0x50
 8001f8c:	ad03      	add	r5, sp, #12
 8001f8e:	002a      	movs	r2, r5
 8001f90:	4b52      	ldr	r3, [pc, #328]	@ (80020dc <SEA_USART1_UART_Init+0x154>)
 8001f92:	2601      	movs	r6, #1
 8001f94:	cb13      	ldmia	r3!, {r0, r1, r4}
 8001f96:	c213      	stmia	r2!, {r0, r1, r4}
 8001f98:	2220      	movs	r2, #32
 8001f9a:	2100      	movs	r1, #0
 8001f9c:	a80c      	add	r0, sp, #48	@ 0x30
 8001f9e:	f7fe f8ff 	bl	80001a0 <memset>
 8001fa2:	2210      	movs	r2, #16
 8001fa4:	2100      	movs	r1, #0
 8001fa6:	a808      	add	r0, sp, #32
 8001fa8:	f7fe f8fa 	bl	80001a0 <memset>
 8001fac:	2103      	movs	r1, #3
 8001fae:	4b4c      	ldr	r3, [pc, #304]	@ (80020e0 <SEA_USART1_UART_Init+0x158>)
 8001fb0:	2402      	movs	r4, #2
 8001fb2:	6d5a      	ldr	r2, [r3, #84]	@ 0x54
 8001fb4:	484b      	ldr	r0, [pc, #300]	@ (80020e4 <SEA_USART1_UART_Init+0x15c>)
 8001fb6:	438a      	bics	r2, r1
 8001fb8:	2180      	movs	r1, #128	@ 0x80
 8001fba:	655a      	str	r2, [r3, #84]	@ 0x54
 8001fbc:	6c1a      	ldr	r2, [r3, #64]	@ 0x40
 8001fbe:	01c9      	lsls	r1, r1, #7
 8001fc0:	430a      	orrs	r2, r1
 8001fc2:	641a      	str	r2, [r3, #64]	@ 0x40
 8001fc4:	6c1a      	ldr	r2, [r3, #64]	@ 0x40
 8001fc6:	400a      	ands	r2, r1
 8001fc8:	9202      	str	r2, [sp, #8]
 8001fca:	9a02      	ldr	r2, [sp, #8]
 8001fcc:	6b5a      	ldr	r2, [r3, #52]	@ 0x34
 8001fce:	a906      	add	r1, sp, #24
 8001fd0:	4322      	orrs	r2, r4
 8001fd2:	635a      	str	r2, [r3, #52]	@ 0x34
 8001fd4:	6b5b      	ldr	r3, [r3, #52]	@ 0x34
 8001fd6:	2240      	movs	r2, #64	@ 0x40
 8001fd8:	4023      	ands	r3, r4
 8001fda:	9301      	str	r3, [sp, #4]
 8001fdc:	9b01      	ldr	r3, [sp, #4]
 8001fde:	2302      	movs	r3, #2
 8001fe0:	960a      	str	r6, [sp, #40]	@ 0x28
 8001fe2:	9206      	str	r2, [sp, #24]
 8001fe4:	9307      	str	r3, [sp, #28]
 8001fe6:	f7ff fbe5 	bl	80017b4 <LL_GPIO_Init>
 8001fea:	2380      	movs	r3, #128	@ 0x80
 8001fec:	2200      	movs	r2, #0
 8001fee:	9306      	str	r3, [sp, #24]
 8001ff0:	9407      	str	r4, [sp, #28]
 8001ff2:	2300      	movs	r3, #0
 8001ff4:	2400      	movs	r4, #0
 8001ff6:	a906      	add	r1, sp, #24
 8001ff8:	483a      	ldr	r0, [pc, #232]	@ (80020e4 <SEA_USART1_UART_Init+0x15c>)
 8001ffa:	920a      	str	r2, [sp, #40]	@ 0x28
 8001ffc:	930b      	str	r3, [sp, #44]	@ 0x2c
 8001ffe:	9408      	str	r4, [sp, #32]
 8002000:	9409      	str	r4, [sp, #36]	@ 0x24
 8002002:	f7ff fbd7 	bl	80017b4 <LL_GPIO_Init>
 8002006:	21c6      	movs	r1, #198	@ 0xc6
 8002008:	4a37      	ldr	r2, [pc, #220]	@ (80020e8 <SEA_USART1_UART_Init+0x160>)
 800200a:	0089      	lsls	r1, r1, #2
 800200c:	5853      	ldr	r3, [r2, r1]
 800200e:	021b      	lsls	r3, r3, #8
 8002010:	0a1b      	lsrs	r3, r3, #8
 8002012:	5053      	str	r3, [r2, r1]
 8002014:	2380      	movs	r3, #128	@ 0x80
 8002016:	051b      	lsls	r3, r3, #20
 8002018:	6013      	str	r3, [r2, #0]
 800201a:	23e1      	movs	r3, #225	@ 0xe1
 800201c:	025b      	lsls	r3, r3, #9
 800201e:	930d      	str	r3, [sp, #52]	@ 0x34
 8002020:	230c      	movs	r3, #12
 8002022:	940c      	str	r4, [sp, #48]	@ 0x30
 8002024:	940e      	str	r4, [sp, #56]	@ 0x38
 8002026:	940f      	str	r4, [sp, #60]	@ 0x3c
 8002028:	9410      	str	r4, [sp, #64]	@ 0x40
 800202a:	9412      	str	r4, [sp, #72]	@ 0x48
 800202c:	9413      	str	r4, [sp, #76]	@ 0x4c
 800202e:	4c2f      	ldr	r4, [pc, #188]	@ (80020ec <SEA_USART1_UART_Init+0x164>)
 8002030:	a90c      	add	r1, sp, #48	@ 0x30
 8002032:	0020      	movs	r0, r4
 8002034:	9311      	str	r3, [sp, #68]	@ 0x44
 8002036:	f7ff fcf3 	bl	8001a20 <LL_USART_Init>
 800203a:	f3ef 8210 	mrs	r2, PRIMASK
 800203e:	f386 8810 	msr	PRIMASK, r6
 8002042:	68a3      	ldr	r3, [r4, #8]
 8002044:	00db      	lsls	r3, r3, #3
 8002046:	08db      	lsrs	r3, r3, #3
 8002048:	60a3      	str	r3, [r4, #8]
 800204a:	f382 8810 	msr	PRIMASK, r2
 800204e:	f3ef 8210 	mrs	r2, PRIMASK
 8002052:	f386 8810 	msr	PRIMASK, r6
 8002056:	4926      	ldr	r1, [pc, #152]	@ (80020f0 <SEA_USART1_UART_Init+0x168>)
 8002058:	68a3      	ldr	r3, [r4, #8]
 800205a:	400b      	ands	r3, r1
 800205c:	60a3      	str	r3, [r4, #8]
 800205e:	f382 8810 	msr	PRIMASK, r2
 8002062:	4a24      	ldr	r2, [pc, #144]	@ (80020f4 <SEA_USART1_UART_Init+0x16c>)
 8002064:	6823      	ldr	r3, [r4, #0]
 8002066:	2180      	movs	r1, #128	@ 0x80
 8002068:	4013      	ands	r3, r2
 800206a:	6023      	str	r3, [r4, #0]
 800206c:	6863      	ldr	r3, [r4, #4]
 800206e:	4a22      	ldr	r2, [pc, #136]	@ (80020f8 <SEA_USART1_UART_Init+0x170>)
 8002070:	03c9      	lsls	r1, r1, #15
 8002072:	4013      	ands	r3, r2
 8002074:	222a      	movs	r2, #42	@ 0x2a
 8002076:	6063      	str	r3, [r4, #4]
 8002078:	68a3      	ldr	r3, [r4, #8]
 800207a:	4393      	bics	r3, r2
 800207c:	2280      	movs	r2, #128	@ 0x80
 800207e:	60a3      	str	r3, [r4, #8]
 8002080:	6823      	ldr	r3, [r4, #0]
 8002082:	0392      	lsls	r2, r2, #14
 8002084:	4333      	orrs	r3, r6
 8002086:	6023      	str	r3, [r4, #0]
 8002088:	69e3      	ldr	r3, [r4, #28]
 800208a:	4213      	tst	r3, r2
 800208c:	d0fc      	beq.n	8002088 <SEA_USART1_UART_Init+0x100>
 800208e:	69e3      	ldr	r3, [r4, #28]
 8002090:	420b      	tst	r3, r1
 8002092:	d0f9      	beq.n	8002088 <SEA_USART1_UART_Init+0x100>
 8002094:	f3ef 8110 	mrs	r1, PRIMASK
 8002098:	2201      	movs	r2, #1
 800209a:	f382 8810 	msr	PRIMASK, r2
 800209e:	2020      	movs	r0, #32
 80020a0:	6823      	ldr	r3, [r4, #0]
 80020a2:	4303      	orrs	r3, r0
 80020a4:	6023      	str	r3, [r4, #0]
 80020a6:	f381 8810 	msr	PRIMASK, r1
 80020aa:	f3ef 8110 	mrs	r1, PRIMASK
 80020ae:	f382 8810 	msr	PRIMASK, r2
 80020b2:	68a3      	ldr	r3, [r4, #8]
 80020b4:	4313      	orrs	r3, r2
 80020b6:	60a3      	str	r3, [r4, #8]
 80020b8:	f381 8810 	msr	PRIMASK, r1
 80020bc:	2361      	movs	r3, #97	@ 0x61
 80020be:	480f      	ldr	r0, [pc, #60]	@ (80020fc <SEA_USART1_UART_Init+0x174>)
 80020c0:	62a3      	str	r3, [r4, #40]	@ 0x28
 80020c2:	f7fe fc47 	bl	8000954 <rb_init>
 80020c6:	4c0e      	ldr	r4, [pc, #56]	@ (8002100 <SEA_USART1_UART_Init+0x178>)
 80020c8:	0020      	movs	r0, r4
 80020ca:	f7fe fc43 	bl	8000954 <rb_init>
 80020ce:	220c      	movs	r2, #12
 80020d0:	0029      	movs	r1, r5
 80020d2:	0020      	movs	r0, r4
 80020d4:	f7fe fc4c 	bl	8000970 <rb_writeBuf>
 80020d8:	b014      	add	sp, #80	@ 0x50
 80020da:	bd70      	pop	{r4, r5, r6, pc}
 80020dc:	0800271c 	.word	0x0800271c
 80020e0:	40021000 	.word	0x40021000
 80020e4:	50000400 	.word	0x50000400
 80020e8:	e000e100 	.word	0xe000e100
 80020ec:	40013800 	.word	0x40013800
 80020f0:	f1ffffff 	.word	0xf1ffffff
 80020f4:	dfffffff 	.word	0xdfffffff
 80020f8:	ffffb7ff 	.word	0xffffb7ff
 80020fc:	2000067c 	.word	0x2000067c
 8002100:	2000056c 	.word	0x2000056c

08002104 <SEA_UART_sendByte>:
 8002104:	b510      	push	{r4, lr}
 8002106:	4b06      	ldr	r3, [pc, #24]	@ (8002120 <SEA_UART_sendByte+0x1c>)
 8002108:	2480      	movs	r4, #128	@ 0x80
 800210a:	e003      	b.n	8002114 <SEA_UART_sendByte+0x10>
 800210c:	3b01      	subs	r3, #1
 800210e:	b29b      	uxth	r3, r3
 8002110:	2b00      	cmp	r3, #0
 8002112:	d003      	beq.n	800211c <SEA_UART_sendByte+0x18>
 8002114:	69c2      	ldr	r2, [r0, #28]
 8002116:	4214      	tst	r4, r2
 8002118:	d0f8      	beq.n	800210c <SEA_UART_sendByte+0x8>
 800211a:	6281      	str	r1, [r0, #40]	@ 0x28
 800211c:	bd10      	pop	{r4, pc}
 800211e:	46c0      	nop			@ (mov r8, r8)
 8002120:	000003e9 	.word	0x000003e9

08002124 <SDK_SPI_Init>:
 8002124:	2180      	movs	r1, #128	@ 0x80
 8002126:	4b30      	ldr	r3, [pc, #192]	@ (80021e8 <SDK_SPI_Init+0xc4>)
 8002128:	b510      	push	{r4, lr}
 800212a:	6c1a      	ldr	r2, [r3, #64]	@ 0x40
 800212c:	0149      	lsls	r1, r1, #5
 800212e:	430a      	orrs	r2, r1
 8002130:	641a      	str	r2, [r3, #64]	@ 0x40
 8002132:	6c1b      	ldr	r3, [r3, #64]	@ 0x40
 8002134:	b082      	sub	sp, #8
 8002136:	400b      	ands	r3, r1
 8002138:	9301      	str	r3, [sp, #4]
 800213a:	9b01      	ldr	r3, [sp, #4]
 800213c:	23a0      	movs	r3, #160	@ 0xa0
 800213e:	210c      	movs	r1, #12
 8002140:	2008      	movs	r0, #8
 8002142:	05db      	lsls	r3, r3, #23
 8002144:	681a      	ldr	r2, [r3, #0]
 8002146:	4c29      	ldr	r4, [pc, #164]	@ (80021ec <SDK_SPI_Init+0xc8>)
 8002148:	438a      	bics	r2, r1
 800214a:	4302      	orrs	r2, r0
 800214c:	601a      	str	r2, [r3, #0]
 800214e:	6a1a      	ldr	r2, [r3, #32]
 8002150:	30e8      	adds	r0, #232	@ 0xe8
 8002152:	4382      	bics	r2, r0
 8002154:	621a      	str	r2, [r3, #32]
 8002156:	689a      	ldr	r2, [r3, #8]
 8002158:	38c0      	subs	r0, #192	@ 0xc0
 800215a:	438a      	bics	r2, r1
 800215c:	609a      	str	r2, [r3, #8]
 800215e:	681a      	ldr	r2, [r3, #0]
 8002160:	3114      	adds	r1, #20
 8002162:	4382      	bics	r2, r0
 8002164:	430a      	orrs	r2, r1
 8002166:	601a      	str	r2, [r3, #0]
 8002168:	6a1a      	ldr	r2, [r3, #32]
 800216a:	4022      	ands	r2, r4
 800216c:	621a      	str	r2, [r3, #32]
 800216e:	689a      	ldr	r2, [r3, #8]
 8002170:	4382      	bics	r2, r0
 8002172:	609a      	str	r2, [r3, #8]
 8002174:	4b1e      	ldr	r3, [pc, #120]	@ (80021f0 <SDK_SPI_Init+0xcc>)
 8002176:	30d4      	adds	r0, #212	@ 0xd4
 8002178:	681a      	ldr	r2, [r3, #0]
 800217a:	4302      	orrs	r2, r0
 800217c:	601a      	str	r2, [r3, #0]
 800217e:	22e0      	movs	r2, #224	@ 0xe0
 8002180:	6858      	ldr	r0, [r3, #4]
 8002182:	00d2      	lsls	r2, r2, #3
 8002184:	4020      	ands	r0, r4
 8002186:	4302      	orrs	r2, r0
 8002188:	605a      	str	r2, [r3, #4]
 800218a:	681a      	ldr	r2, [r3, #0]
 800218c:	4819      	ldr	r0, [pc, #100]	@ (80021f4 <SDK_SPI_Init+0xd0>)
 800218e:	4002      	ands	r2, r0
 8002190:	2002      	movs	r0, #2
 8002192:	601a      	str	r2, [r3, #0]
 8002194:	681a      	ldr	r2, [r3, #0]
 8002196:	4382      	bics	r2, r0
 8002198:	601a      	str	r2, [r3, #0]
 800219a:	681a      	ldr	r2, [r3, #0]
 800219c:	3801      	subs	r0, #1
 800219e:	4382      	bics	r2, r0
 80021a0:	601a      	str	r2, [r3, #0]
 80021a2:	681a      	ldr	r2, [r3, #0]
 80021a4:	3037      	adds	r0, #55	@ 0x37
 80021a6:	4382      	bics	r2, r0
 80021a8:	430a      	orrs	r2, r1
 80021aa:	601a      	str	r2, [r3, #0]
 80021ac:	681a      	ldr	r2, [r3, #0]
 80021ae:	3160      	adds	r1, #96	@ 0x60
 80021b0:	438a      	bics	r2, r1
 80021b2:	601a      	str	r2, [r3, #0]
 80021b4:	681a      	ldr	r2, [r3, #0]
 80021b6:	3181      	adds	r1, #129	@ 0x81
 80021b8:	31ff      	adds	r1, #255	@ 0xff
 80021ba:	430a      	orrs	r2, r1
 80021bc:	601a      	str	r2, [r3, #0]
 80021be:	685a      	ldr	r2, [r3, #4]
 80021c0:	39fd      	subs	r1, #253	@ 0xfd
 80021c2:	39ff      	subs	r1, #255	@ 0xff
 80021c4:	438a      	bics	r2, r1
 80021c6:	605a      	str	r2, [r3, #4]
 80021c8:	681a      	ldr	r2, [r3, #0]
 80021ca:	313c      	adds	r1, #60	@ 0x3c
 80021cc:	430a      	orrs	r2, r1
 80021ce:	21c6      	movs	r1, #198	@ 0xc6
 80021d0:	601a      	str	r2, [r3, #0]
 80021d2:	4b09      	ldr	r3, [pc, #36]	@ (80021f8 <SDK_SPI_Init+0xd4>)
 80021d4:	0089      	lsls	r1, r1, #2
 80021d6:	585a      	ldr	r2, [r3, r1]
 80021d8:	4808      	ldr	r0, [pc, #32]	@ (80021fc <SDK_SPI_Init+0xd8>)
 80021da:	4002      	ands	r2, r0
 80021dc:	505a      	str	r2, [r3, r1]
 80021de:	2280      	movs	r2, #128	@ 0x80
 80021e0:	0492      	lsls	r2, r2, #18
 80021e2:	601a      	str	r2, [r3, #0]
 80021e4:	b002      	add	sp, #8
 80021e6:	bd10      	pop	{r4, pc}
 80021e8:	40021000 	.word	0x40021000
 80021ec:	fffff0ff 	.word	0xfffff0ff
 80021f0:	40013000 	.word	0x40013000
 80021f4:	ffff3bff 	.word	0xffff3bff
 80021f8:	e000e100 	.word	0xe000e100
 80021fc:	ffff00ff 	.word	0xffff00ff

08002200 <SDK_SPI_Transmit_IT>:
 8002200:	4b06      	ldr	r3, [pc, #24]	@ (800221c <SDK_SPI_Transmit_IT+0x1c>)
 8002202:	2200      	movs	r2, #0
 8002204:	6018      	str	r0, [r3, #0]
 8002206:	4b06      	ldr	r3, [pc, #24]	@ (8002220 <SDK_SPI_Transmit_IT+0x20>)
 8002208:	8019      	strh	r1, [r3, #0]
 800220a:	2180      	movs	r1, #128	@ 0x80
 800220c:	4b05      	ldr	r3, [pc, #20]	@ (8002224 <SDK_SPI_Transmit_IT+0x24>)
 800220e:	801a      	strh	r2, [r3, #0]
 8002210:	4a05      	ldr	r2, [pc, #20]	@ (8002228 <SDK_SPI_Transmit_IT+0x28>)
 8002212:	6853      	ldr	r3, [r2, #4]
 8002214:	430b      	orrs	r3, r1
 8002216:	6053      	str	r3, [r2, #4]
 8002218:	4770      	bx	lr
 800221a:	46c0      	nop			@ (mov r8, r8)
 800221c:	20000794 	.word	0x20000794
 8002220:	20000792 	.word	0x20000792
 8002224:	20000790 	.word	0x20000790
 8002228:	40013000 	.word	0x40013000

0800222c <SPI1_IRQHandler>:
 800222c:	4a0f      	ldr	r2, [pc, #60]	@ (800226c <SPI1_IRQHandler+0x40>)
 800222e:	b510      	push	{r4, lr}
 8002230:	6893      	ldr	r3, [r2, #8]
 8002232:	079b      	lsls	r3, r3, #30
 8002234:	d505      	bpl.n	8002242 <SPI1_IRQHandler+0x16>
 8002236:	4b0e      	ldr	r3, [pc, #56]	@ (8002270 <SPI1_IRQHandler+0x44>)
 8002238:	490e      	ldr	r1, [pc, #56]	@ (8002274 <SPI1_IRQHandler+0x48>)
 800223a:	8818      	ldrh	r0, [r3, #0]
 800223c:	8809      	ldrh	r1, [r1, #0]
 800223e:	4288      	cmp	r0, r1
 8002240:	d308      	bcc.n	8002254 <SPI1_IRQHandler+0x28>
 8002242:	2280      	movs	r2, #128	@ 0x80
 8002244:	4b09      	ldr	r3, [pc, #36]	@ (800226c <SPI1_IRQHandler+0x40>)
 8002246:	6899      	ldr	r1, [r3, #8]
 8002248:	420a      	tst	r2, r1
 800224a:	d102      	bne.n	8002252 <SPI1_IRQHandler+0x26>
 800224c:	6859      	ldr	r1, [r3, #4]
 800224e:	4391      	bics	r1, r2
 8002250:	6059      	str	r1, [r3, #4]
 8002252:	bd10      	pop	{r4, pc}
 8002254:	881c      	ldrh	r4, [r3, #0]
 8002256:	4908      	ldr	r1, [pc, #32]	@ (8002278 <SPI1_IRQHandler+0x4c>)
 8002258:	1c60      	adds	r0, r4, #1
 800225a:	6809      	ldr	r1, [r1, #0]
 800225c:	b280      	uxth	r0, r0
 800225e:	8018      	strh	r0, [r3, #0]
 8002260:	1909      	adds	r1, r1, r4
 8002262:	780b      	ldrb	r3, [r1, #0]
 8002264:	b2db      	uxtb	r3, r3
 8002266:	7313      	strb	r3, [r2, #12]
 8002268:	e7eb      	b.n	8002242 <SPI1_IRQHandler+0x16>
 800226a:	46c0      	nop			@ (mov r8, r8)
 800226c:	40013000 	.word	0x40013000
 8002270:	20000790 	.word	0x20000790
 8002274:	20000792 	.word	0x20000792
 8002278:	20000794 	.word	0x20000794

0800227c <SDK_ADC_InitInterruptMode>:
 800227c:	b5f0      	push	{r4, r5, r6, r7, lr}
 800227e:	46de      	mov	lr, fp
 8002280:	4645      	mov	r5, r8
 8002282:	4657      	mov	r7, sl
 8002284:	464e      	mov	r6, r9
 8002286:	b5e0      	push	{r5, r6, r7, lr}
 8002288:	b08b      	sub	sp, #44	@ 0x2c
 800228a:	0005      	movs	r5, r0
 800228c:	4688      	mov	r8, r1
 800228e:	2218      	movs	r2, #24
 8002290:	2100      	movs	r1, #0
 8002292:	a804      	add	r0, sp, #16
 8002294:	f7fd ff84 	bl	80001a0 <memset>
 8002298:	2180      	movs	r1, #128	@ 0x80
 800229a:	4b60      	ldr	r3, [pc, #384]	@ (800241c <SDK_ADC_InitInterruptMode+0x1a0>)
 800229c:	0349      	lsls	r1, r1, #13
 800229e:	6c1a      	ldr	r2, [r3, #64]	@ 0x40
 80022a0:	4c5f      	ldr	r4, [pc, #380]	@ (8002420 <SDK_ADC_InitInterruptMode+0x1a4>)
 80022a2:	430a      	orrs	r2, r1
 80022a4:	641a      	str	r2, [r3, #64]	@ 0x40
 80022a6:	2204      	movs	r2, #4
 80022a8:	6c1b      	ldr	r3, [r3, #64]	@ 0x40
 80022aa:	400b      	ands	r3, r1
 80022ac:	9303      	str	r3, [sp, #12]
 80022ae:	9b03      	ldr	r3, [sp, #12]
 80022b0:	6863      	ldr	r3, [r4, #4]
 80022b2:	4313      	orrs	r3, r2
 80022b4:	6063      	str	r3, [r4, #4]
 80022b6:	2380      	movs	r3, #128	@ 0x80
 80022b8:	4a5a      	ldr	r2, [pc, #360]	@ (8002424 <SDK_ADC_InitInterruptMode+0x1a8>)
 80022ba:	015b      	lsls	r3, r3, #5
 80022bc:	6013      	str	r3, [r2, #0]
 80022be:	21c3      	movs	r1, #195	@ 0xc3
 80022c0:	20ff      	movs	r0, #255	@ 0xff
 80022c2:	0089      	lsls	r1, r1, #2
 80022c4:	5853      	ldr	r3, [r2, r1]
 80022c6:	4383      	bics	r3, r0
 80022c8:	383f      	subs	r0, #63	@ 0x3f
 80022ca:	4303      	orrs	r3, r0
 80022cc:	5053      	str	r3, [r2, r1]
 80022ce:	2218      	movs	r2, #24
 80022d0:	68e3      	ldr	r3, [r4, #12]
 80022d2:	0020      	movs	r0, r4
 80022d4:	4393      	bics	r3, r2
 80022d6:	60e3      	str	r3, [r4, #12]
 80022d8:	68e3      	ldr	r3, [r4, #12]
 80022da:	3208      	adds	r2, #8
 80022dc:	4393      	bics	r3, r2
 80022de:	2280      	movs	r2, #128	@ 0x80
 80022e0:	60e3      	str	r3, [r4, #12]
 80022e2:	68e3      	ldr	r3, [r4, #12]
 80022e4:	0392      	lsls	r2, r2, #14
 80022e6:	4313      	orrs	r3, r2
 80022e8:	4642      	mov	r2, r8
 80022ea:	0091      	lsls	r1, r2, #2
 80022ec:	220f      	movs	r2, #15
 80022ee:	408a      	lsls	r2, r1
 80022f0:	60e3      	str	r3, [r4, #12]
 80022f2:	9205      	str	r2, [sp, #20]
 80022f4:	2280      	movs	r2, #128	@ 0x80
 80022f6:	2300      	movs	r3, #0
 80022f8:	0252      	lsls	r2, r2, #9
 80022fa:	a904      	add	r1, sp, #16
 80022fc:	9304      	str	r3, [sp, #16]
 80022fe:	9206      	str	r2, [sp, #24]
 8002300:	9307      	str	r3, [sp, #28]
 8002302:	9308      	str	r3, [sp, #32]
 8002304:	f7ff fb60 	bl	80019c8 <LL_ADC_REG_Init>
 8002308:	2280      	movs	r2, #128	@ 0x80
 800230a:	6923      	ldr	r3, [r4, #16]
 800230c:	0612      	lsls	r2, r2, #24
 800230e:	009b      	lsls	r3, r3, #2
 8002310:	089b      	lsrs	r3, r3, #2
 8002312:	4313      	orrs	r3, r2
 8002314:	6123      	str	r3, [r4, #16]
 8002316:	4643      	mov	r3, r8
 8002318:	2b00      	cmp	r3, #0
 800231a:	d044      	beq.n	80023a6 <SDK_ADC_InitInterruptMode+0x12a>
 800231c:	231f      	movs	r3, #31
 800231e:	469b      	mov	fp, r3
 8002320:	4b41      	ldr	r3, [pc, #260]	@ (8002428 <SDK_ADC_InitInterruptMode+0x1ac>)
 8002322:	0028      	movs	r0, r5
 8002324:	469a      	mov	sl, r3
 8002326:	4b41      	ldr	r3, [pc, #260]	@ (800242c <SDK_ADC_InitInterruptMode+0x1b0>)
 8002328:	2500      	movs	r5, #0
 800232a:	4699      	mov	r9, r3
 800232c:	4b40      	ldr	r3, [pc, #256]	@ (8002430 <SDK_ADC_InitInterruptMode+0x1b4>)
 800232e:	210f      	movs	r1, #15
 8002330:	469c      	mov	ip, r3
 8002332:	e010      	b.n	8002356 <SDK_ADC_InitInterruptMode+0xda>
 8002334:	4b3f      	ldr	r3, [pc, #252]	@ (8002434 <SDK_ADC_InitInterruptMode+0x1b8>)
 8002336:	429e      	cmp	r6, r3
 8002338:	d108      	bne.n	800234c <SDK_ADC_InitInterruptMode+0xd0>
 800233a:	4663      	mov	r3, ip
 800233c:	681a      	ldr	r2, [r3, #0]
 800233e:	4b3e      	ldr	r3, [pc, #248]	@ (8002438 <SDK_ADC_InitInterruptMode+0x1bc>)
 8002340:	401a      	ands	r2, r3
 8002342:	2380      	movs	r3, #128	@ 0x80
 8002344:	03db      	lsls	r3, r3, #15
 8002346:	4313      	orrs	r3, r2
 8002348:	4662      	mov	r2, ip
 800234a:	6013      	str	r3, [r2, #0]
 800234c:	3501      	adds	r5, #1
 800234e:	b2eb      	uxtb	r3, r5
 8002350:	3008      	adds	r0, #8
 8002352:	4598      	cmp	r8, r3
 8002354:	d927      	bls.n	80023a6 <SDK_ADC_InitInterruptMode+0x12a>
 8002356:	465a      	mov	r2, fp
 8002358:	00af      	lsls	r7, r5, #2
 800235a:	4017      	ands	r7, r2
 800235c:	000a      	movs	r2, r1
 800235e:	40ba      	lsls	r2, r7
 8002360:	6aa3      	ldr	r3, [r4, #40]	@ 0x28
 8002362:	6806      	ldr	r6, [r0, #0]
 8002364:	4393      	bics	r3, r2
 8002366:	0eb2      	lsrs	r2, r6, #26
 8002368:	400a      	ands	r2, r1
 800236a:	40ba      	lsls	r2, r7
 800236c:	4313      	orrs	r3, r2
 800236e:	62a3      	str	r3, [r4, #40]	@ 0x28
 8002370:	6962      	ldr	r2, [r4, #20]
 8002372:	6843      	ldr	r3, [r0, #4]
 8002374:	9201      	str	r2, [sp, #4]
 8002376:	4652      	mov	r2, sl
 8002378:	0237      	lsls	r7, r6, #8
 800237a:	403b      	ands	r3, r7
 800237c:	4013      	ands	r3, r2
 800237e:	9a01      	ldr	r2, [sp, #4]
 8002380:	43ba      	bics	r2, r7
 8002382:	4313      	orrs	r3, r2
 8002384:	6163      	str	r3, [r4, #20]
 8002386:	454e      	cmp	r6, r9
 8002388:	d1d4      	bne.n	8002334 <SDK_ADC_InitInterruptMode+0xb8>
 800238a:	4663      	mov	r3, ip
 800238c:	681a      	ldr	r2, [r3, #0]
 800238e:	4b2a      	ldr	r3, [pc, #168]	@ (8002438 <SDK_ADC_InitInterruptMode+0x1bc>)
 8002390:	3501      	adds	r5, #1
 8002392:	401a      	ands	r2, r3
 8002394:	2380      	movs	r3, #128	@ 0x80
 8002396:	041b      	lsls	r3, r3, #16
 8002398:	4313      	orrs	r3, r2
 800239a:	4662      	mov	r2, ip
 800239c:	6013      	str	r3, [r2, #0]
 800239e:	b2eb      	uxtb	r3, r5
 80023a0:	3008      	adds	r0, #8
 80023a2:	4598      	cmp	r8, r3
 80023a4:	d8d7      	bhi.n	8002356 <SDK_ADC_InitInterruptMode+0xda>
 80023a6:	4a1e      	ldr	r2, [pc, #120]	@ (8002420 <SDK_ADC_InitInterruptMode+0x1a4>)
 80023a8:	6893      	ldr	r3, [r2, #8]
 80023aa:	07db      	lsls	r3, r3, #31
 80023ac:	d509      	bpl.n	80023c2 <SDK_ADC_InitInterruptMode+0x146>
 80023ae:	6893      	ldr	r3, [r2, #8]
 80023b0:	4922      	ldr	r1, [pc, #136]	@ (800243c <SDK_ADC_InitInterruptMode+0x1c0>)
 80023b2:	400b      	ands	r3, r1
 80023b4:	2102      	movs	r1, #2
 80023b6:	430b      	orrs	r3, r1
 80023b8:	6093      	str	r3, [r2, #8]
 80023ba:	3901      	subs	r1, #1
 80023bc:	6893      	ldr	r3, [r2, #8]
 80023be:	4219      	tst	r1, r3
 80023c0:	d1fc      	bne.n	80023bc <SDK_ADC_InitInterruptMode+0x140>
 80023c2:	4c17      	ldr	r4, [pc, #92]	@ (8002420 <SDK_ADC_InitInterruptMode+0x1a4>)
 80023c4:	4b1e      	ldr	r3, [pc, #120]	@ (8002440 <SDK_ADC_InitInterruptMode+0x1c4>)
 80023c6:	68a2      	ldr	r2, [r4, #8]
 80023c8:	200a      	movs	r0, #10
 80023ca:	401a      	ands	r2, r3
 80023cc:	2380      	movs	r3, #128	@ 0x80
 80023ce:	055b      	lsls	r3, r3, #21
 80023d0:	4313      	orrs	r3, r2
 80023d2:	60a3      	str	r3, [r4, #8]
 80023d4:	f7ff fada 	bl	800198c <LL_mDelay>
 80023d8:	68a2      	ldr	r2, [r4, #8]
 80023da:	4b18      	ldr	r3, [pc, #96]	@ (800243c <SDK_ADC_InitInterruptMode+0x1c0>)
 80023dc:	401a      	ands	r2, r3
 80023de:	3318      	adds	r3, #24
 80023e0:	4313      	orrs	r3, r2
 80023e2:	60a3      	str	r3, [r4, #8]
 80023e4:	68a3      	ldr	r3, [r4, #8]
 80023e6:	2b00      	cmp	r3, #0
 80023e8:	dbfc      	blt.n	80023e4 <SDK_ADC_InitInterruptMode+0x168>
 80023ea:	68a3      	ldr	r3, [r4, #8]
 80023ec:	4a13      	ldr	r2, [pc, #76]	@ (800243c <SDK_ADC_InitInterruptMode+0x1c0>)
 80023ee:	2101      	movs	r1, #1
 80023f0:	4013      	ands	r3, r2
 80023f2:	2201      	movs	r2, #1
 80023f4:	4313      	orrs	r3, r2
 80023f6:	4a0a      	ldr	r2, [pc, #40]	@ (8002420 <SDK_ADC_InitInterruptMode+0x1a4>)
 80023f8:	60a3      	str	r3, [r4, #8]
 80023fa:	6813      	ldr	r3, [r2, #0]
 80023fc:	4219      	tst	r1, r3
 80023fe:	d0fc      	beq.n	80023fa <SDK_ADC_InitInterruptMode+0x17e>
 8002400:	6893      	ldr	r3, [r2, #8]
 8002402:	490e      	ldr	r1, [pc, #56]	@ (800243c <SDK_ADC_InitInterruptMode+0x1c0>)
 8002404:	400b      	ands	r3, r1
 8002406:	2104      	movs	r1, #4
 8002408:	430b      	orrs	r3, r1
 800240a:	6093      	str	r3, [r2, #8]
 800240c:	b00b      	add	sp, #44	@ 0x2c
 800240e:	bcf0      	pop	{r4, r5, r6, r7}
 8002410:	46bb      	mov	fp, r7
 8002412:	46b2      	mov	sl, r6
 8002414:	46a9      	mov	r9, r5
 8002416:	46a0      	mov	r8, r4
 8002418:	bdf0      	pop	{r4, r5, r6, r7, pc}
 800241a:	46c0      	nop			@ (mov r8, r8)
 800241c:	40021000 	.word	0x40021000
 8002420:	40012400 	.word	0x40012400
 8002424:	e000e100 	.word	0xe000e100
 8002428:	7fffff00 	.word	0x7fffff00
 800242c:	a4000200 	.word	0xa4000200
 8002430:	40012708 	.word	0x40012708
 8002434:	a8000400 	.word	0xa8000400
 8002438:	ff3fffff 	.word	0xff3fffff
 800243c:	7fffffe8 	.word	0x7fffffe8
 8002440:	6fffffe8 	.word	0x6fffffe8

08002444 <SDK_ADC_GetConversionResults>:
 8002444:	b5f0      	push	{r4, r5, r6, r7, lr}
 8002446:	2404      	movs	r4, #4
 8002448:	46c6      	mov	lr, r8
 800244a:	4a1f      	ldr	r2, [pc, #124]	@ (80024c8 <SDK_ADC_GetConversionResults+0x84>)
 800244c:	b500      	push	{lr}
 800244e:	6853      	ldr	r3, [r2, #4]
 8002450:	43a3      	bics	r3, r4
 8002452:	2480      	movs	r4, #128	@ 0x80
 8002454:	6053      	str	r3, [r2, #4]
 8002456:	2380      	movs	r3, #128	@ 0x80
 8002458:	4a1c      	ldr	r2, [pc, #112]	@ (80024cc <SDK_ADC_GetConversionResults+0x88>)
 800245a:	0164      	lsls	r4, r4, #5
 800245c:	50d4      	str	r4, [r2, r3]
 800245e:	f3bf 8f4f 	dsb	sy
 8002462:	f3bf 8f6f 	isb	sy
 8002466:	4b1a      	ldr	r3, [pc, #104]	@ (80024d0 <SDK_ADC_GetConversionResults+0x8c>)
 8002468:	681b      	ldr	r3, [r3, #0]
 800246a:	469c      	mov	ip, r3
 800246c:	2901      	cmp	r1, #1
 800246e:	d90f      	bls.n	8002490 <SDK_ADC_GetConversionResults+0x4c>
 8002470:	001d      	movs	r5, r3
 8002472:	0004      	movs	r4, r0
 8002474:	2200      	movs	r2, #0
 8002476:	1e4e      	subs	r6, r1, #1
 8002478:	4f16      	ldr	r7, [pc, #88]	@ (80024d4 <SDK_ADC_GetConversionResults+0x90>)
 800247a:	b2b6      	uxth	r6, r6
 800247c:	882b      	ldrh	r3, [r5, #0]
 800247e:	3201      	adds	r2, #1
 8002480:	437b      	muls	r3, r7
 8002482:	b292      	uxth	r2, r2
 8002484:	131b      	asrs	r3, r3, #12
 8002486:	8023      	strh	r3, [r4, #0]
 8002488:	3502      	adds	r5, #2
 800248a:	3402      	adds	r4, #2
 800248c:	42b2      	cmp	r2, r6
 800248e:	d1f5      	bne.n	800247c <SDK_ADC_GetConversionResults+0x38>
 8002490:	4b11      	ldr	r3, [pc, #68]	@ (80024d8 <SDK_ADC_GetConversionResults+0x94>)
 8002492:	4a0d      	ldr	r2, [pc, #52]	@ (80024c8 <SDK_ADC_GetConversionResults+0x84>)
 8002494:	4698      	mov	r8, r3
 8002496:	4663      	mov	r3, ip
 8002498:	4441      	add	r1, r8
 800249a:	0049      	lsls	r1, r1, #1
 800249c:	185b      	adds	r3, r3, r1
 800249e:	881b      	ldrh	r3, [r3, #0]
 80024a0:	5243      	strh	r3, [r0, r1]
 80024a2:	2104      	movs	r1, #4
 80024a4:	6853      	ldr	r3, [r2, #4]
 80024a6:	430b      	orrs	r3, r1
 80024a8:	6053      	str	r3, [r2, #4]
 80024aa:	2380      	movs	r3, #128	@ 0x80
 80024ac:	4a07      	ldr	r2, [pc, #28]	@ (80024cc <SDK_ADC_GetConversionResults+0x88>)
 80024ae:	015b      	lsls	r3, r3, #5
 80024b0:	6013      	str	r3, [r2, #0]
 80024b2:	21c3      	movs	r1, #195	@ 0xc3
 80024b4:	20ff      	movs	r0, #255	@ 0xff
 80024b6:	0089      	lsls	r1, r1, #2
 80024b8:	5853      	ldr	r3, [r2, r1]
 80024ba:	4383      	bics	r3, r0
 80024bc:	383f      	subs	r0, #63	@ 0x3f
 80024be:	4303      	orrs	r3, r0
 80024c0:	5053      	str	r3, [r2, r1]
 80024c2:	bc80      	pop	{r7}
 80024c4:	46b8      	mov	r8, r7
 80024c6:	bdf0      	pop	{r4, r5, r6, r7, pc}
 80024c8:	40012400 	.word	0x40012400
 80024cc:	e000e100 	.word	0xe000e100
 80024d0:	20000010 	.word	0x20000010
 80024d4:	00000ce4 	.word	0x00000ce4
 80024d8:	7fffffff 	.word	0x7fffffff

080024dc <SDK_ADC_calculateVin>:
 80024dc:	000b      	movs	r3, r1
 80024de:	b510      	push	{r4, lr}
 80024e0:	1e11      	subs	r1, r2, #0
 80024e2:	d005      	beq.n	80024f0 <SDK_ADC_calculateVin+0x14>
 80024e4:	18d3      	adds	r3, r2, r3
 80024e6:	4358      	muls	r0, r3
 80024e8:	f7fd fef4 	bl	80002d4 <__udivsi3>
 80024ec:	b280      	uxth	r0, r0
 80024ee:	bd10      	pop	{r4, pc}
 80024f0:	2000      	movs	r0, #0
 80024f2:	e7fc      	b.n	80024ee <SDK_ADC_calculateVin+0x12>

080024f4 <ADC1_IRQHandler>:
 80024f4:	2304      	movs	r3, #4
 80024f6:	4a13      	ldr	r2, [pc, #76]	@ (8002544 <ADC1_IRQHandler+0x50>)
 80024f8:	b530      	push	{r4, r5, lr}
 80024fa:	6811      	ldr	r1, [r2, #0]
 80024fc:	420b      	tst	r3, r1
 80024fe:	d016      	beq.n	800252e <ADC1_IRQHandler+0x3a>
 8002500:	4911      	ldr	r1, [pc, #68]	@ (8002548 <ADC1_IRQHandler+0x54>)
 8002502:	6013      	str	r3, [r2, #0]
 8002504:	880b      	ldrh	r3, [r1, #0]
 8002506:	4c11      	ldr	r4, [pc, #68]	@ (800254c <ADC1_IRQHandler+0x58>)
 8002508:	1c58      	adds	r0, r3, #1
 800250a:	b280      	uxth	r0, r0
 800250c:	8008      	strh	r0, [r1, #0]
 800250e:	6c12      	ldr	r2, [r2, #64]	@ 0x40
 8002510:	6825      	ldr	r5, [r4, #0]
 8002512:	005b      	lsls	r3, r3, #1
 8002514:	18eb      	adds	r3, r5, r3
 8002516:	b292      	uxth	r2, r2
 8002518:	801a      	strh	r2, [r3, #0]
 800251a:	880b      	ldrh	r3, [r1, #0]
 800251c:	2b04      	cmp	r3, #4
 800251e:	d807      	bhi.n	8002530 <ADC1_IRQHandler+0x3c>
 8002520:	4a08      	ldr	r2, [pc, #32]	@ (8002544 <ADC1_IRQHandler+0x50>)
 8002522:	490b      	ldr	r1, [pc, #44]	@ (8002550 <ADC1_IRQHandler+0x5c>)
 8002524:	6893      	ldr	r3, [r2, #8]
 8002526:	400b      	ands	r3, r1
 8002528:	2104      	movs	r1, #4
 800252a:	430b      	orrs	r3, r1
 800252c:	6093      	str	r3, [r2, #8]
 800252e:	bd30      	pop	{r4, r5, pc}
 8002530:	2300      	movs	r3, #0
 8002532:	800b      	strh	r3, [r1, #0]
 8002534:	4b07      	ldr	r3, [pc, #28]	@ (8002554 <ADC1_IRQHandler+0x60>)
 8002536:	681a      	ldr	r2, [r3, #0]
 8002538:	601d      	str	r5, [r3, #0]
 800253a:	6022      	str	r2, [r4, #0]
 800253c:	2201      	movs	r2, #1
 800253e:	4b06      	ldr	r3, [pc, #24]	@ (8002558 <ADC1_IRQHandler+0x64>)
 8002540:	701a      	strb	r2, [r3, #0]
 8002542:	e7ed      	b.n	8002520 <ADC1_IRQHandler+0x2c>
 8002544:	40012400 	.word	0x40012400
 8002548:	2000079a 	.word	0x2000079a
 800254c:	20000014 	.word	0x20000014
 8002550:	7fffffe8 	.word	0x7fffffe8
 8002554:	20000010 	.word	0x20000010
 8002558:	20000798 	.word	0x20000798

0800255c <Reset_Handler>:
 800255c:	480d      	ldr	r0, [pc, #52]	@ (8002594 <LoopForever+0x2>)
 800255e:	4685      	mov	sp, r0
 8002560:	f7fe fd8c 	bl	800107c <SystemInit>
 8002564:	2100      	movs	r1, #0
 8002566:	e003      	b.n	8002570 <LoopCopyDataInit>

08002568 <CopyDataInit>:
 8002568:	4b0b      	ldr	r3, [pc, #44]	@ (8002598 <LoopForever+0x6>)
 800256a:	585b      	ldr	r3, [r3, r1]
 800256c:	5043      	str	r3, [r0, r1]
 800256e:	3104      	adds	r1, #4

08002570 <LoopCopyDataInit>:
 8002570:	480a      	ldr	r0, [pc, #40]	@ (800259c <LoopForever+0xa>)
 8002572:	4b0b      	ldr	r3, [pc, #44]	@ (80025a0 <LoopForever+0xe>)
 8002574:	1842      	adds	r2, r0, r1
 8002576:	429a      	cmp	r2, r3
 8002578:	d3f6      	bcc.n	8002568 <CopyDataInit>
 800257a:	4a0a      	ldr	r2, [pc, #40]	@ (80025a4 <LoopForever+0x12>)
 800257c:	e002      	b.n	8002584 <LoopFillZerobss>

0800257e <FillZerobss>:
 800257e:	2300      	movs	r3, #0
 8002580:	6013      	str	r3, [r2, #0]
 8002582:	3204      	adds	r2, #4

08002584 <LoopFillZerobss>:
 8002584:	4b08      	ldr	r3, [pc, #32]	@ (80025a8 <LoopForever+0x16>)
 8002586:	429a      	cmp	r2, r3
 8002588:	d3f9      	bcc.n	800257e <FillZerobss>
 800258a:	f7fd fde5 	bl	8000158 <__libc_init_array>
 800258e:	f7fe fb0b 	bl	8000ba8 <main>

08002592 <LoopForever>:
 8002592:	e7fe      	b.n	8002592 <LoopForever>
 8002594:	20003000 	.word	0x20003000
 8002598:	08002734 	.word	0x08002734
 800259c:	20000000 	.word	0x20000000
 80025a0:	20000018 	.word	0x20000018
 80025a4:	20000018 	.word	0x20000018
 80025a8:	200007b4 	.word	0x200007b4

080025ac <DMA1_Channel1_IRQHandler>:
 80025ac:	e7fe      	b.n	80025ac <DMA1_Channel1_IRQHandler>
	...

080025b0 <_init>:
 80025b0:	b5f8      	push	{r3, r4, r5, r6, r7, lr}
 80025b2:	46c0      	nop			@ (mov r8, r8)
 80025b4:	bcf8      	pop	{r3, r4, r5, r6, r7}
 80025b6:	bc08      	pop	{r3}
 80025b8:	469e      	mov	lr, r3
 80025ba:	4770      	bx	lr

080025bc <_fini>:
 80025bc:	b5f8      	push	{r3, r4, r5, r6, r7, lr}
 80025be:	46c0      	nop			@ (mov r8, r8)
 80025c0:	bcf8      	pop	{r3, r4, r5, r6, r7}
 80025c2:	bc08      	pop	{r3}
 80025c4:	469e      	mov	lr, r3
 80025c6:	4770      	bx	lr
